(lp0
S'c9a6643a7fbe80432901e9e0fa0fbf97934579e627ed2842e6f7edb1513c6918'
p1
aS'a13d64c3343ff0fc59008ba8235714b6151e520b5db94dce382f460aa52fddc2'
p2
aS'0f522066638ceb0177e3fcc444e7f094174a47f80510f525c046a0e2ee6c707e'
p3
aS'447d471e6fb059ac644bfa9e20905c0b3bfb53b266d746b37ac1f8cda7e12b63'
p4
aS'2eb06b1339b5b41239457c8f086c89af4dde6906f4189e464371110ecda79686'
p5
aS'572dec45bf573e1839b524c1f740de4dec624589109fe2336f3b14d96feb6335'
p6
aS'cecfb70a10e5218b29d084e023e771900028f8c8d7ac0aea428a3cd3b7b99f09'
p7
aS'4035a2f77274b82bfe1bed53bad2d0ba2650f1e4fc4f0678e3615d644c8369fe'
p8
aS'3344d4e1cab480b114bdf814924c3806b448636cdb0a591730d6a69ad6d1a605'
p9
aS'6825f28ea53df01081632756b349a0c204458aee9f4f829fc9efc8f5fd484418'
p10
aS'44f695292f1a2bdbb82106b6999ef4750d589ac586cda307b4856467829fbbc2'
p11
aS'b836eaa34da89e7b5071b72dc28d29e164abd714eb5d2a0cf71c69492d1bf182'
p12
aS'd23ac936138bc66cf698d634b0d03fe68881cc276d64b6f86fc1d2b6ee292b8b'
p13
aS'cc5b704825dc0afba4f6283a1b7c3f7278a14b92588cd83032012f2e9a09a4ad'
p14
aS'96f34a341822429377531d6c742f86540c8be20e55482f3ca5a11094219091c1'
p15
aS'49ee931272bfee68e80a51d3526b78ec0fc9d5865222aa661e202aef6cfbefc5'
p16
aS'ba11ead228509858956b3315e0be7246209a56d656726d852e4979a6c3317f52'
p17
aS'f256c7def3ca7dc7cb8a99f2259a06fa01350d8c4f200d92d1313250c758c8fc'
p18
aS'062214ca0e11d604a598ca8caaaac92862f451ea7018c4cd98d5fec067598fc5'
p19
aS'de0c9959ef4de49c671221431065943f16fabff766f91ed79b651a004dc18e1f'
p20
aS'50c975a8d7fa154019dfd2b741e026daa8430722eaded2ae6bb0d859154e23be'
p21
aS'0416c0eee4f77ee585cd4306e8d2c51cac9897447f3240028f76d39987a0aa9d'
p22
aS'b9a64f6d754f52509eecd8a10e7c6b607e92d46c7079e7c6d0142dd3380017d3'
p23
aS'ea4d78536bf44668ace2ff62c93d126ce7a4672b49a89b34f3bf19a72ed66e54'
p24
aS'b163bb5ca7da84dbc2d897fdc8da4dcb06911de58fe90f5fcf97e274a8e84c4e'
p25
aS'ec142154cc9007e38d8cc85d54a31cc9ed540c12f89bb83e18c4a5c8222524a5'
p26
aS'7198fea3e7f504b15a4714308b8ed948258a90de97833039d01d5394a8464016'
p27
aS'269b365022ee85022b59491462da9c56c02f8154ac0e40f532b32050d65996e1'
p28
aS'4c11b9b3c20c0f62165a3b9101dfea0c64e814f6e50bb037741fea992fa0da6d'
p29
aS'a8d1275590eae2ad5a6cd1ceacd4a6682cafce64f274c2fca82b69691bcb3d71'
p30
aS'b9de5b55f975924457f1cc1dd43645016d8326fda8bf5cb045c6325539a0e575'
p31
aS'a94b474bf18f6700dc22799df1154edf5edb01123017b7775c791d7a472d7dc2'
p32
aS'81d92969301922111340b26171017dfe1d78c4769782b787f76be46d326458fc'
p33
aS'3649e071e00bc65e3c2346bc62a8f52b1c2bc91ef32579d10bb018745cf800ff'
p34
aS'6c100c3955284b39c1ae00138002e773ba71f4274b7be8ec60c1e3b4b6bc00a5'
p35
aS'e45f5f0a1288f6955902c10503541b53abd783d7b0678f8bd305de713aa07580'
p36
aS'84bb9f2254c03d61c303e2eaa9608bb949799b175206a31c72ca3f9fa0e8098b'
p37
aS'145e722aee984ca01656d631ec102fdb562740f2ea640b5c6acf7decb956a12c'
p38
aS'b030f6f00d6fa01128c60f9aad60f511e200914933b68cd45d64760c4fd83a2b'
p39
aS'c7900d1033465d45d4022df2e8e4561de3356c545c2145d5dd35535178c76477'
p40
aS'6114763d127ff5c844ce07fe41361893f5ba3f8014f70f2d734526e6210e4264'
p41
aS'9d0830c91981473cdc95c64c30231e1ac2673260b2094d6752c973167dbe55e1'
p42
aS'839a8da95dada3f448d81af1e0eee3b05255f01f9a12d73d72547f3642dcf1f7'
p43
aS'd256211651a47ffccd87c4f779288312279d06bbc496b1862cd657a55e7bab7c'
p44
aS'28734fdd0849fc9245fc18259100f01a20fae1a519d688758c3894eeff5eb7f0'
p45
aS'ffe6812666629cf9076b7d699fd9bbdc14c2d5ca32c9c8157f9bca18e47acd5f'
p46
aS'bbac253b61d04402d6e20cfff578f6b31af2a8873b7bbcedb5cb5f433aa6f622'
p47
aS'a04e35155807f2cf395c1e3fb6cc2ca13535db54409048dc1798a4f739a8aac0'
p48
aS'73dca5f9eb379d767cda50900467391df7d60c0e88581573195fcfef9ec0e6d3'
p49
aS'0e9385eec4e3ecd58bc45de38bf6d889f0215dcd857655fcd2c73360a0f8a6f2'
p50
aS'cae55c83ce86ea9fa6ab0b8db8f58b918ed2fbe5f29e252afc3b9d7f0267f583'
p51
aS'f6cfadc6d2cac78646c8669e290339fb6c50749abae448e21315e9ba859ac51d'
p52
aS'64d91fc0860438517a04ce944c6a738470977b1fe30cbdf6ec98c50add86c72b'
p53
aS'd344410adb9cf4287e3ef48d06976676d478e101c7f81c60ee58133653e80db4'
p54
aS'7411356d968454feb836dc789c2d6f43c8bd303aed0dff462cf9ffe1ac4bccca'
p55
aS'103816e927181e7a0756b92069d19cbe5d72ab69def562790f58a65ab01561e4'
p56
aS'bee7539450ad7a541ee4bc7535c48c21e50d8af69677484e88882329b9fa310f'
p57
aS'0d7bebc9909b6211b77e2d91f964fcda86b84d94a1dab81735e81f72ee07b4a0'
p58
aS'049b1e46562855b77c1c329bd370cf15217fa5d3311be510332688b0f7c83665'
p59
aS'10d2debdf153d1933f344d0696a4ac1edf94048c871f9b937c36fc62a87016d2'
p60
aS'3966418b6ee933227dfabccf92aeb2e79afd4ebaf6d629718bddd8cbc83d8dee'
p61
aS'bd5efe21386af7b0ff693db9aba4c24ab1416bef888c6991516b8c6f5133022e'
p62
aS'cd8bc989b047badca5bf2c44e6a711bfff64ec3de8dc06522e23f2fcc53a9f42'
p63
aS'8cb2c938e76b9ce486946e4a825b87b75e49b208193563ea6254e18b60da3af2'
p64
aS'1e2d67091b923ab62efb5cd3e77ec1e3cd6d83a994a2900f6e54a283bfcad000'
p65
aS'6413529cfeb1a1963aff239539af5456f04b8f0686a819bea6406b43de84d354'
p66
aS'45ecf21cb589788f88524e454118e8ef906371830336d4f523ae4b0b6f2d5bcb'
p67
aS'73c4ddebc64a4fef504483e6f49bafff615a6d3fee853980d12538281a635197'
p68
aS'9cb72ecc0f90c2e4794ea6c4964839ea02e384fa031654d5127c8870f2b20579'
p69
aS'52e3d2f2df9cc8c05d437bfb66e73a3bba490a6b3705819a79a6b3837903eec5'
p70
aS'99df0090ff7cf18ef99f39e6797aae2396a2d00ea24a8f63eaeb0a2eceb52e58'
p71
aS'1c8cc5fb841952aaa4142180301a795adf26d02f3b9ecb8dcd49137ef4924a5b'
p72
aS'4e8e5d678f24617604448194d69895270624b7e89897bd0286b50722af694484'
p73
aS'55ab20776adf98882ea70c55c9efebcdc611cc19a332e9dc0a0fb590eacf2e1f'
p74
aS'8b85b618fbeb1a85275893095b75035e1f338de836be09fde642de80b3ea5254'
p75
aS'9baa147eacf8294f6dea55f7e6cca7e06cfe4c0fab60b215c0f6744c44cbc149'
p76
aS'711e82ef6e7beb6665d5aa462d950bc2a4eebab93b69070ee9fd3710b4f34a2c'
p77
aS'0c26ea683b0609fab0cf39c211be92db928d0fd41c80a6f9547647fba9d75568'
p78
aS'5cb6e85736ae756575a5f74e64f853b03fb643bd2f9635f36280b152e866683f'
p79
aS'c6d5bf639d6431f6bdcd3306e4d26bccb593078f69ec594a844083a118e5ffc4'
p80
aS'72d07339ffb8e0e986b0e1a1dc9852045e611178e499aa274826b6a07c04b2a8'
p81
aS'439607078e93c92ab76d18534786714071aaacfbe32e26d64bc5e4880de7f26a'
p82
aS'f6c8fe15b1cc2a831e222314887423e4da01e0b8c048fe9dba2d89ef85266c60'
p83
aS'1ace4887ecd92a28a519f71378d85dab6d4c238433fbd39b81f25075a755be85'
p84
aS'5993298796041b7ad428b207a89971d5434458da3aed1c9be188b298b73d6781'
p85
aS'5c4e861a4e950ce03bd3201238ca489e0851ff9ec95540742f71754fc8ca61ae'
p86
aS'96320de56e4d3cd63195d9f095ed58351ba06be775caa786462eb2d73b652ac4'
p87
aS'b6ebb7dcc760cca2e95760c85327ed35e0b072b137a61eafa5d67793f3e8cadb'
p88
aS'77b6a97bf8b528319c2ee7da04b2c8072f29d93120e2ba2dda519a67baaadcfc'
p89
aS'a606482f47eb200b934ca237da96122e530a8c617d625bd61101e3690e2e8f94'
p90
aS'31e657dcf8cbd9004c314c20e0d80984ef5ddf690935c0c913793a6616a8ae61'
p91
aS'354d3d1289ea50d59fab6a17a6086144cecae2916e3a4f7b08f6e5ce094a32d7'
p92
aS'0125eb755bb894ef4554dcb3a5911241ec62da4a6216f945424d5e4878fd8e5c'
p93
aS'4c985ec58a7cac9061aecf2b68bba928f94547fc6214f951f62aa0c233c1c200'
p94
aS'c94ad48beadfee102a33793393a772c443ac846713b51c384f8a7b32888938ae'
p95
aS'fc13ff89c212873d372a6e2d84cb589e1e57a1252114eb9a3c2d49dfb7cc4c26'
p96
aS'64603a68106b6b1590fefe72c80e8c492619050a4a6a932dee8bd0452c81725c'
p97
aS'185bbde95391c48e753810d4a314cdb4577b9e4304e4a13a2dcfa1b46d365b2e'
p98
aS'428e7bfab28a80339d8923e3bbe8b2406d02cf3ec6c6a12a0daad15adcc987b4'
p99
aS'b66a699f5106367cd26ce1c1dccc9ff717541e425c6eb77e1379abdc7d3ceb09'
p100
aS'839bf77d590131c56cf9eed353a11277b516ff8ef4878991bb7750c26427423f'
p101
aS'ddf76899c582dbae4dd098d547ea1cd36d2247070712786811797702f72a784b'
p102
aS'3247dbb2a9198da4efdb339ad0a728f737e45d87b466b27438a7c1a62f38d5bc'
p103
aS'cb4f3cd7d6dca3b1300ecbca458f36cecad45c9fc489529aef07ac077d08a3d1'
p104
aS'4860b771ad89d18d18d151083229206a1a1e635ecde6428cc3109bd92ef34b4b'
p105
aS'047f4981fe8c175f540cf7c664795440cf01edce3472f5f931d330ec254b3576'
p106
aS'3cf124c5a5223950c8bc45d86e7f07ec237b02070562ba019532d9261ae031c1'
p107
aS'd085ffc3900a942af1780a4fdb41f04826c70b20bbbb2efa179d5a703a55a27a'
p108
aS'7963ea939940d83be4c1750abb707eeb5c1fe99563e884ec0b2aed2e964e3195'
p109
aS'e93df99d3aef2e396eda33fa272a76045cc7fbd57adf57c3ea99a515defe972b'
p110
aS'744f3dec0e9ea22cc4e51698acd92392b12bf0da6f178edead13028e0fe8a9a4'
p111
aS'd392cce4202223617cefadaad349f789c508fd11eb1d2dec9d516ebb0cb4d832'
p112
aS'3257ec995130beb94ff9bc729b192f42a3d6f54e1072a7357a2accf59e54c94a'
p113
aS'ae8e8ab80b2bbaa5e9485440d521dcfb6a1aabc6e3b881d6931bfb4332b3322b'
p114
aS'5bd580806d38b3b9185f1b672d8f5f7ccfdf2f2a092cd37d62bced795530d677'
p115
aS'8187f763c3ac4295f96cd1cfa1aee92fb3f37c8dff8f601c1a3f4f930cde3723'
p116
aS'91644d2a36d33db384ebd70232496b264d1694a78997bf08b1826d740e4cfa42'
p117
aS'6d3a6611fc49c6f8c22bdfcdef6074a8ff053d5e47f8969e44c62ad4f51ee98b'
p118
aS'8d37a1155fc86155a7bfeb6c3933ddef1eacf46fb7723752f6ca140a52d28cf1'
p119
aS'c1756b48dd32de144266da1e8a3a266b7a86c5bd8b1718c2a0b187cd5c36a07d'
p120
aS'34c33230b8f75546b981775ea0c30e295cc747aee6d1e9c0370a262f2be9632c'
p121
aS'217c84ab803a64e1d968b20027d5f6c88d818da6adb1dc36ca8a7154769a2c57'
p122
aS'ccc61234f95c5759c891f199ce4f3c6f2a41099a681c48fcdd1394e735f57153'
p123
aS'229d7a0f96010c2a9b68ea095379c5942524502ec2c4bce1a4ef2acaad72aa1d'
p124
aS'f5437f9bbab4365047199995bae8f899bcb488a9b00f9d28719a845aa5455d97'
p125
aS'4af1910801abc572dbd21e2cda57341f4c0bd13e9c9c92b00844ca7c6f3ab247'
p126
aS'6fce4275f70f3799abe44549f531b05c07ff5b42f11eec7a44d8219e32caf13c'
p127
aS'0bd6dd428aa702d75536c69a28f920db17c5a9fdf0d0ccaba458c78ab0dd24cd'
p128
aS'8661f630a12e8b3b943ab29bc4b6e26a4f57d0fd96355a334e288c184195b15d'
p129
aS'7da6a4deb2c899d6c0dc5b024d781a3c0825dffe0f71d3c83eb69b21dcc85d79'
p130
aS'd22980db308a5b6d1f86c860274abf18825f3ede4d4a96f19a4182e1ffa880df'
p131
aS'349024dc29edabe29a40302139bcee50befbe6f485af7f7f150d6526aacf3b2c'
p132
aS'36320759b3bbb58392e2de652a2f7815ab371112cdb2c8a77c8d8976e056d059'
p133
aS'cc1313f29954e1f9d8e2e868b9c684fbf6b8ebfba3cbea49f0493e5540a17c5d'
p134
aS'b364d5cc7fbc3144351177fa001f8b2680c0a0b9df854f2303777c226731f88b'
p135
aS'79ec90dbdd2fef7dca72ca53563e62dc6a5814491203bb3de6834df27598d889'
p136
aS'555b6a50df0251ab3fb70855c885c46e38f13beb511a65f26366eb37d3584750'
p137
aS'ebad3ac23aa55832a51d4b71c98401c223c8a52d3ba86a7b4755dbd4826ffd9c'
p138
aS'52aaed36c5f02a07f8e967c1ba5344fc93a682629b223bdbfbe8edb4d351a46f'
p139
aS'0d5ceb0239aaf858d692f911faaa1e60ec9ae67d3a42e6935c0990574a5667d4'
p140
aS'817178081d528074e653831f2572a9e4152f48988fc4353360c22982d0fe7b4e'
p141
aS'91ef960d244361e94e4ac76f6fe8913933e0236f6e6f277a588bc7d52ead952b'
p142
aS'3353f6f7988229412221fff58659d9b58fced92d542a76ca80f3e7a94c516d7e'
p143
aS'7d7b8c2d6305eff471a110bbfa27266ee8dbdc00baa6e5c0c3c68eb461be3ec7'
p144
aS'df240d847acf793dafe2f97c789284709c330cdebef8ab5d3693412ca0efb130'
p145
aS'4556f4775106002435301785dcaa8030e45339d962ed6af026d1a7c3934ed473'
p146
aS'6071a8bacf07961ceb58b55ce3e34d306cacfb7c53c3924700f1862cd2d1452c'
p147
aS'10c73c6ed0ce09e21a0b990c24c2b72c7e0fe1df2d2eb93b1415d6ebda79c9d8'
p148
aS'8efc719d7860872e7f93b105fdac3d4313f188a2c19a4763e1ab6ba3f8df175b'
p149
aS'11ca6615bb43d3a002ad72433e8bd8dc860a12cc381a9ca0a51c8bade81a90ca'
p150
aS'fba59182fe4bd19712f21a9dee261a2ec62e6ae99ee9a9615dc077268522b6a2'
p151
aS'97cf9b7bbac931226308be09ce2e52915ddff964770f89b8e49282316ca8bb29'
p152
aS'4e166c9cc8b35d85ebb0103a77d5abbd2f0cf3cb5d6b34bfa2fb658a774b8249'
p153
aS'b2bb15ff04ac34e2dc5a7dd42fd9810edc58046f4665b033d36b4f13c3ccc21f'
p154
aS'78c2e333217fbaecbebe1fa5a79426aac218b3106c805bbf5d63192b318c64dd'
p155
aS'8b8beeae5883529b51e87869a9b14b99f47eaa34d882d1ecdd671bc14bcf4dda'
p156
aS'5957ef5ab9d588d59040bf18c49f3d0329f2688578262e433aed088c66d0faa3'
p157
aS'6ff322720b258f7e01c4fb6d9195c5fd1a3ccc756b57295df226c2c624bca980'
p158
aS'c83fbac01aa2abed5b769a1898b9a7547881f7ab947ca51ac84ad9a5794f1f73'
p159
aS'2513a42d0ee551353023eb0c2d418261b61892e0aedc9b8019b466b55c6df313'
p160
aS'dfc2336d0336e6e001715c27c2b05529c84bb32bff023f98c5d864bcc4826538'
p161
aS'b494164d17c9bbe7c3894373a1337a35da8e08c8ef3669097101253cd86e1652'
p162
aS'14f75adc00773f10a7c43541481973ce0c53cbb83de2970085a0e44c42fbbfb0'
p163
aS'5660c33927c23324dff5b42df78a8481e99d86d3999d58a7fc6ed078dc81e91d'
p164
aS'3742f12548bf38cbaf17e3bba6df466da6d75c81ab641d2621c6c34bb6328700'
p165
aS'7cb314e60cb08387b68906c13e00a069494487bb13568bfd9bfec2d6afe3859c'
p166
aS'8ea9a3b79b083fd46765d9ec36b2db443c134394541957c5454cc4f7a9424128'
p167
aS'82bc6f68909253a33e1c2c4725b90bc023c0784fab8ffd95978f92deb8eee340'
p168
aS'a87522ea338e96a930faf4a8af7e7b49bb2b5375b40a9141db7a8c7fbec033b9'
p169
aS'919415725a7856a9302c472b622596ee602347f461bb2777ea5b10fa9b57cd0c'
p170
aS'79c2b58ac77f530e57e29c11e16aa20905600c217a55b8eec120ba00bc666601'
p171
aS'd3c5bd6cdc4479c428135ed77a6b65e4587943a9cf753415dc3cd1a81f6acda6'
p172
aS'1569e2e3ac4afb817d736273fa08d042d8ef8b1c598699a4da06776de1e7ddad'
p173
aS'4fe9c2e73b0b6dabea5a976c44ec19e859b86bb176ae86e9bc34b3766d28c7a9'
p174
aS'827fbca5f79c557846e07684b9586bb8382f5fc84ad10d51e992ea357c3b4736'
p175
aS'5e55461af46b890d14ed937328f278a505e5455c26741fb0c6a22cfcd109ea34'
p176
aS'112f9c084af71093ed8fb18a4aac217998a425b09c293b64f1d4840e08d32d7e'
p177
aS'c5d8748788ca7b0c80890a4b2145666fad1c60d6569a8cffb2e96b3401790908'
p178
aS'fca73d9d8edfbf69dd212eff75f5e65b0aae36efbf824ec0840da420b0c696b2'
p179
aS'fa7bf8a56125ce01785696e4e50344ad8480ddd284d9bb2f143ec4938d0fa7c8'
p180
aS'87c6d7811b7bd41cbf01b27a076ad48366bbfb54a62d6cf34b71d731ac182b35'
p181
aS'a745c828d881fa2a65117179c2c49c8df7b1270286e2e35ca17d853d4a5d69a0'
p182
aS'1693804b2db6713a5e848b3dfad354a2eb9e1421fe22feb71b6db5e4d2b3deaf'
p183
aS'ab776b04944db9d6757d20e4e3d31a3f01c6eff782c173d244f88830be311999'
p184
aS'b478264566e170edfed9c456255d5fa3c6379d4760c445ec43947ca30e64a9c7'
p185
aS'5761b8ab7a0d9e0615195771d9f2a2e9909eebb4e43fa4c740bdd732e91cee67'
p186
aS'db461c2a273b2db8a577912009e80887776ed10618c35d22ca8aa688b8530869'
p187
aS'f2ca52547be4a5fb1968be29122b5bd51a512273db1d101d0caa8fcab1d2e8f1'
p188
aS'9243009d0260736676232668add805b9c217fa585a9bb50da1212c6d49cdc3c5'
p189
aS'ae82573f4ead9b60188d94a809a015c012fbd8fbac93d1594541cef7764d0387'
p190
aS'37f403bd86bf9a39051f127fbc429a2ce73ebd745da859dbc5f9a54eb237b105'
p191
aS'3990f098e8d563e65b4d7d77fc28cdd4de1f242578d3126bed74e205537cc604'
p192
aS'0c760f60202810a128913d7a3ba364dd3f4b05cfdcd87f1606a61d604add2dca'
p193
aS'c844e77e18a56c15546a381a8cca3ba0307fa348a20858493b9102167502fc19'
p194
aS'ff393509d8ab6bb865885b501b9745a7baf8c9a6c37b71a0e10281286694fb17'
p195
aS'697d72d23c47aa8e4c8ddacc099e1fa1c93864c0162ebdd893fa2eff98dc72ec'
p196
aS'06a70e4d01cce3a332a583a0e6a12d100d9ce34a77f987e80b388954bcb20c16'
p197
aS'bb742e53f808ac7baa44eb74b155c1d363dd90b9ba09b04c47ddc947716ff995'
p198
aS'c1483d68c92b6fdb30942137314b3b7c316c4201adcc76b912042278ca352e45'
p199
aS'26945d46915dfe23dcc15cbcf42cfcdb8b09cac8f98f59d45c444c0c0eeb110e'
p200
aS'fae24cb7ec247294202a712a7d8993ef6eab9037ca4ef670c93cad1cc2f3af90'
p201
aS'692c275ddd176e5cd0c47febd1acae6c4ac47beddb61c8df007ad074f003f23e'
p202
aS'138adadf58b2d499334768e68c0b8462d9fae22bc4060bf62d77992d8dfb0c4a'
p203
aS'0c20f8264d9912a150a727bda953f8accc194dbaced12f7c00c76be67f90507a'
p204
aS'4d7db057cfcf23101e669c5353473daa5044dd2b46d358c581bbcadbeba65477'
p205
aS'4812aa90b382c1e1318dc8069d34372f9f26e6409f327cc630f7c022edc22380'
p206
aS'012ef42db0270a5a5ea9eabc343a963d526d77348524c5b7227af549fb6f2a09'
p207
aS'3b37ff8bd4d10c759432fe7ce7cc941690970c019c7ff22c5b5915cf1bc4681e'
p208
aS'1e096174f2b331240225b5021065c38bc790dfe6ca9dc5fae572fca4eb87f96d'
p209
aS'8d57185a4003468d3f3d023d443fded388d8c3ca480afe32ce2ba0210156ca6d'
p210
aS'cee7244a3aa87b7be6a1adb6d93f8cb2250f2474d307cac42631e72d1bfef1ef'
p211
aS'9c59d56f3f781dc41b3a0b01e42225b518b21818ff7ca1ecb40810773f3efd04'
p212
aS'f76244aaf20ca3025bc3d6e6f0f2d101c032ff1b011b791a8cc0ca4db84dc16c'
p213
aS'54593ffad1794f5785ee2991fcecbd2c47b5e4f7bbae56bf08bd710fd4cfca7b'
p214
aS'b0f7ee424ac852d08cc52efc4bb12558fc42e8b0e0ec5d27d7664e45a91f667c'
p215
aS'9828da74e103397f055c8bf0bbac3290c5abe182e97b1e5c3ffc018e1ea9b4a7'
p216
aS'c1da6544fdf78420d61c6176ee77086fef5972dc24f7f8389a07e63672b7a222'
p217
aS'6154d4dae614646f0ba1e11e92f898a671b4a54e18bacb54266c4934c9a46384'
p218
aS'ebb97128cd4b8689e6c57089a658d5caffb96c9ec3db3706dc1ef8aef7e96e33'
p219
aS'f1fcfd69e228b7f1d5927300b15e6c5daee2a1a7ec49c07827644ab2026c14da'
p220
aS'719e4971eaeab9d7d1eff083923bffd97c01ef75cafa7b976dfa3bd8afcd1439'
p221
aS'ab87bccddd64af0099b28239d058074d65a953bb857b4dd071f6aaf9e8419d6f'
p222
aS'afc720c533caa619dc8299a82327fc17f5a6638ef337814f540975ce559795c2'
p223
aS'9f8ab8f3a3507b7b102cdace8faded4e43e421e50baa03d3b430bf5df490391c'
p224
aS'cdda9d2133eaa355f8412dd31b4bbcaf99b8c86f2d35719c83bba913634af989'
p225
aS'446605265c3c8502c7793a7dbe74976f9d314738bfa3a3c59a9a82c06bf7cab3'
p226
aS'14a04f9e49161fc625b433a427e9bef2d1b8ac0d5a1515491dce5046c99f44f2'
p227
aS'1d4064e63617206f8fd3d8f60890d34b7ebfc3c01745d98758ccd2c5960785df'
p228
aS'1dfdaf1fa896c967d2ebbfeac44f4112b7c34a5433994028698f042bc1819094'
p229
aS'd0fb97d2ea2a2fa07de1c705bc4a4c90afb99c13dd15f57d35c2bd1cd3f22d12'
p230
aS'b0601bfec247474b301796769488a0e94f5014f6284e9e8f949f2bbb5c057929'
p231
aS'183b4072fbc8b3e143d1f572340ce618f9b5593832d2fafaa5cb48ef933ca6b0'
p232
aS'c2d75fb0871a56e4710aaaa1f980210c7c4160371336922bd74223ffb650d862'
p233
aS'2a8079aebcea94d07592d826c294eb28b321e71080f0e65e28bd38a30d6b398f'
p234
aS'3c84abb92ae15280e9e71fe55ef5bac0d73d2feb318fd2a2e93c0a8f3e5759eb'
p235
aS'8264040fc807bb59095a2bd1ae6fdde4f5f594827187d0410cb831c6b1538224'
p236
aS'e9f30614d0bea8d6ed3a0c7c6e12dd2bc99754d9ccb7b2be2986c0b7addd3970'
p237
aS'7936e553ad0c4ca0a2d08af7d32be7bfee6579b8ee996e0890f9641a30e73971'
p238
aS'96cdc4f58cfe44bf58d2aee47a671095ad66b29259fa5bc848d78c89e392e317'
p239
aS'ded519f9217189b70028d07e8ceeaf1dead3516b85dbaf27573790d19cab3c8d'
p240
aS'69ab7b5de61d2847f6c20de4ab27c0ffc54ab6031b2935a3fec83d9bbc9b5b19'
p241
aS'71f6d7dd393a3373a0ceda99cbd142753a647d382fe001b68863341e35b58bcb'
p242
aS'1d74f3620284ff01ee41abe9858257eb3194b182b79bc6640c1ddb53cf98a147'
p243
aS'3f500ae1a9d9bba6af4819cd36a7cb9835a434a9bff5311b1250f7523a7ff2d3'
p244
aS'8e76035f8f4aebfdffeb5abee72c05bfbcd37e84c7d79baad2fa961e7c63ff46'
p245
aS'0930aed8711982058674d038d89364ab113a4aac2e8f081380b9d1ffebe985fc'
p246
aS'e2fa97d1c6b640ce3a5e2f05d21deaa525078e2f9d2ee196a6a2f3c71f6345ee'
p247
aS'999319ed5fc6c8129d70ec933f6d42588e60da5f147cbe0590562022f45fc576'
p248
aS'c996ee87c909e2332c20e843327d437efbfd83815a112dd4d725356f0dddff68'
p249
aS'5492cc7b3c42f3a25d0779635f6aca332a3e1bd031c1590005de1f8a48b2e2ed'
p250
aS'3fb48be3d51c4e88fcd3cf41ad72875e537e0096858aa59a686b4440c3eb3906'
p251
aS'9d2665eec8d9dbfac0b81e83ad2890b2a424693ccd7cc3cf92ef937f92082bb3'
p252
aS'f9f9439a5c59ce34a5288fdb3f2916c91ac2df8c004de55ead65d7cd634b72ac'
p253
aS'cd8ef99db64f328e7918f8e0cce423f9f1c396ae3feb8e4f903199cc6810ad00'
p254
aS'9add566670057ca3ce94e43e98539c3b5a9f2ec7e09e2e2184373fff900379e9'
p255
aS'06c551afbb0759495d996ee25458b4b9a4a75cdc1eb9994ac151c2b2bbe25e2e'
p256
aS'a18a3544b6a2c3866d76a5028e088e5f0bd820ffecea2b99abf905ab824b20be'
p257
aS'11a7f7e179b3c2cb3bb9da7675818d14641e26313553e1195010068a076998c8'
p258
aS'35a25358483268b6c0096e0d0909e66274a45d353553134de25711217e4beb80'
p259
aS'577a869e07e0aa94e029fec62830b62457e3b733059eae73641cad24ac4dbfdf'
p260
aS'f304cc718eb9c16fcd463af3c5f39ee24996fa7d0c8d6629c16bf8da337ba12e'
p261
aS'9bd6a16fbdae4db6cb27a037897f7d9cd6e130179754fc10c0e44a8b6ffda737'
p262
aS'46999d4d9c663521a5bed2998961cf193ad7226a7a0e78a4e5fbbea687e7f149'
p263
aS'b2982bda220c78bf9f1953d50c0dc8d1eb10e337d5dc17a70a511745aaaa9901'
p264
aS'811171d5376e9940a26fce66e03e3605af90ba7ccc1ffdc44a7bc6209673c60e'
p265
aS'5cfe1f933745c588de02ae0c3be523e99ff25397e46b2f006b32582a7b096209'
p266
aS'ac5fd493130205d896c155864668ff76aef0f0aabf34f1b576ecc1026751723a'
p267
aS'0f4a0385ab61c381a872266f652c8c8c5d1238f867e4414fdc57f66775816fd7'
p268
aS'3d4695f280e0ee807e10984ac0ae6fdb71cbb1f065259bdbd658c549361f3320'
p269
aS'3be9f13610cc2ac149de9268c9edbc2a6ffd768ca8d9f423f9f2f5f68711fcb1'
p270
aS'5b3fc806c12d295a1723ae6d17fc4e52dc0818cfc26a6d7cf0e7bdb1e1d9b138'
p271
aS'4eb678d0e05eba5ae56aa6fd3333d2e064456eea411408d58c696c0606c1f165'
p272
aS'43920004e15a9529bdecf6f638c70a1fe47a31cdaef8162d4fafe6c0d3faee15'
p273
aS'26ee694328a255394ed476e7a3cdf0e489100b8e5c9abfe4082f2f3ccde8e0f7'
p274
aS'74f8e8a46f055d7091d889fa2d891fd5aa41573b48b515eade740b5b39318861'
p275
aS'f33657af900c0d3fa87bedcf8117840736624c8ee5279ead519401f85f29972a'
p276
aS'a68ec6216022cb8c2cb0c9787ca21cc49bcd33102906278ad84cb6c2269a0ed3'
p277
aS'eef28dfe904a5a4a80eff96577993809303de7f04979d5794de13064f0274545'
p278
aS'0bd1ab4fb6b16ff03a7d375a0f8bd6d3d53cc2796c9baaf0ebf916c9291e1d7c'
p279
aS'b2eeaebce8c9d0e1bf4aea143e8289ba5e8fd121d69fcf650023f8217c8a9565'
p280
aS'956d6158f050e4b841add7fbe4998d328215fe8233841b073335c9fc185dbd91'
p281
aS'630189db4d41dd5ff8ccb5285065ae7ec59d4cfa0f70932e1c1c946111e01f6c'
p282
aS'bc7adb6886129ad34e7d1312a1a9d22b578caccfbd42bd0440f7a87a9d1970aa'
p283
aS'20516c2c27a2ffa1519d652a2047eb4f58ac3b594cdf5c42266aab12802d90a1'
p284
aS'2e577f5b3c6d1a8cce548a599285e40905a526275d91dde46300a7b5bfadec50'
p285
aS'6d7895fe792e407f56420722ba0c55e583db1b6d779fce753d55830bb38545e3'
p286
aS'11e9960b36f39bce200bcab364659bdf0f02d685ed89bef0403ef2f64890997d'
p287
aS'00c687280e83a9a4880f60c1551b20161e98cbaa66ebead24190921b1c2ff5c2'
p288
aS'e054e0d4a7e65324692c6c92e63946cb88c0f903ed91b07c24d0058a3d5e084a'
p289
aS'c2a1d4742ec9a685d04a8d9a7e2753b0dbafa3b5c2a72d6fef4f2230c48ecdec'
p290
aS'1c93405a77aea0ea8ed0f12d09f2dc12e83b57e87acc320e61f4e2db4214ab25'
p291
aS'df63c49f7eaeada45da5a50e9d3a5d450d7fa7ffdb0b1d233a35c9789e42ec0b'
p292
aS'a5c81080a3d35caf1179633934dfd00b26bdacf2c7392aae39670c0709653a63'
p293
aS'5d9c2528155b32cfcf32aea151345d59d5e1eda88c78bd204a36c534e900ac52'
p294
aS'd9bdb9c9d5a44ea139581df6d2067fc9ce4d8e819721a508f8f6cfcc00351876'
p295
aS'48d187a01089b0ca7a8f1f10a3898f1bcf665d5adcf5963dec88db39f9c2bdba'
p296
aS'277156283cd9242c3437b85f65e2c9c6f9fb8f20483cc2a07c4610c847760862'
p297
aS'9c64bd40f312cde42f0a646c0f8b5dee9af5121b149c70ca0c0033206bc8d619'
p298
aS'a348a271196db830422153dbdf517da8b88a527dc140370503e994d7e1f2c115'
p299
aS'522a560698b6a76a42e6e0c7cf0206b40a28de5de6070efeac72f4ad77c51c0b'
p300
aS'a85b10c9f6fe3887fc31480c1d4d96b4989ecc7ef0d2e07c5b819d09c18ea9fe'
p301
aS'fa10f9f525895f76026edd8577af50a2e7b1d7d56dcea70155a0b20579737e19'
p302
aS'4b822dd7009597d8f27ca1577cc8520dc89051fa19570d88c12def029e8d1042'
p303
aS'10a3180a903c89192d24f613e99a63b3ef711b46ac86af40ee620c6a085fba31'
p304
aS'9a35e95745c6f3b3c3c59abb3bae72848caf9fc591696a1bbb5998641a23dcb2'
p305
aS'9794d0b6d64f9e1d067ee09d96b7869a4bc114a0a2aa1e6c7efc90752ce6f531'
p306
aS'daf0dfbd46b78355dc072b333a2db33d8963118b9efc0dddccc62ff41f3d4326'
p307
aS'833df9798ae256b2952404473e3fa3cabdc568b49edea79b37333aadf765a26f'
p308
aS'3a645164c7259c7807930097498f07c5f87b5d613d7886c9368c7e23828d06ae'
p309
aS'b06055e37ef6cd6086d801a756ac83e71afc8c5eabec50d32fb13883ec691449'
p310
aS'2674505319419d24e5fd4dc3ceda9f566ccacadc797b89d6bdfe5b9523df6d25'
p311
aS'9881abdd442dc9368009046e15888c17a42fd629202825bfea679c3a38ebb16f'
p312
aS'72aba3430e9f1015221a9239d1ab3368df8e03f13de7b8064ffe75785da9b20b'
p313
aS'7993b7554474efc416f026f989f163c49840234610bb9b75de929bdd5cd998eb'
p314
aS'a80ade64fa130a470c87856a92f6ad79bf950b7c39a8da23460f4fe76a29f74e'
p315
aS'f39aae50e44b94a455c6c7e131f195cf86ce9b62476bdeda92aec004a5648a4e'
p316
aS'ddbd8074b2403130498828b19890f47d2208787f6540e634ef9c99323e0d4e24'
p317
aS'3e7464ea7d7e231211e6746614eb1e1d96d31772acc9800dd855183b0625d204'
p318
aS'492dd16212f0fc6d2f187454ba57e7b27d477eaadf6f9c547ea345715d249e0d'
p319
aS'828b1ce92749b65d720daf095f6cac330bef1b1ed17641628c5e16fbe5d02c06'
p320
aS'705ff5584492cb34b34e51a0fd535d33edca4c7de44c510025c909198bfb5a6b'
p321
aS'30b857396c8868614b53d1a444445a178ef2ee1cdb9dd02bf474c65a0bfe310e'
p322
aS'9669c7b119e4953840db53ff94f57410608776ed0ebcec6505b923cc7cbd3dc0'
p323
aS'3031f8e69f6cc7f4f9747eb37e7fdbaf10b7a4d1830b6e6b44a4b5e711f49a56'
p324
aS'20c6d9656c532c12a3a39af7e228713d3dbb9fcfba3b57468b50acd47807aff5'
p325
aS'bd6d6bfc304d887518d3b447fe714b95a517f2af4095817a761a243132844db7'
p326
aS'968e191cd1acecfa8987ebd0d8d19f741ea7d84df5ccad36fe7d0d794377bd53'
p327
aS'bc9b50e9300b030fe88f39a03d830546f1504a7bde0cf8906b645367bc4b9759'
p328
aS'3222a51ed1ba91f7b5eb83bed23e505d18cb29926734fb9f76b3698505500109'
p329
aS'795bc30d3fb75cc0a809088bc7e881911abba6973c9df01695d368ed5bb8486e'
p330
aS'8a1e642016fd46320084fdf8536f47308f5193afa65f4dab6ae593b2b6b4006d'
p331
aS'64b288be8efbacaec937ca7e8429c25e3f5149aee72a96b26827328f42479a86'
p332
aS'0ca43967ed49df3c304ef7ed6c888c760d5bae56defb510b5343459ebab16a7c'
p333
aS'bd1898a43358f5208c19df39bf65f91f065b53cb2434b5db4367e99ade6fb4a7'
p334
aS'92e07b1bbb262a765092a267356703a8b1dc856e9caaeead9f99a7c768d516c9'
p335
aS'c12c2b2fff8a603e3b322323095c2f6e806ab7a2ec62898f30672cd0db355e45'
p336
aS'289dda4a56cee03b2f59c2c3c3cc3db4f176a97190a19be7fab31583da25b980'
p337
aS'e44e52962aaf04a17b131c5532ff7edaf45d31bd2a72221a41da476860b15322'
p338
aS'5300b3bf0476b059fad5f6d0b93df9b85eaeb4e5ffc201ab5220ec1989472cf7'
p339
aS'482c3b22f0e2fde1967837fc742d176fa94a663d90cf171e9626d7358a06c8b8'
p340
aS'642f456ea65f795300f26e77174936c5516d143f4f933b5bdfe14c30b4de038f'
p341
aS'8061f198db9ef92aa13d433547cf26a364561fe42dfb2c8010d43ce690c3c167'
p342
aS'14e3cce90d7d89fbf0f38da66c40997bb44a4b31c85d33c0bb8ac88c4c16216d'
p343
aS'09b5dbd51b476cc13079ea968ccc53f4955d28a67afef0ef2dd53d7e802e94a8'
p344
aS'f3cbcc45ccf592e43b55f4e14fc17989416750cae9d5d55059fb9a59b73c7988'
p345
aS'54f18e9fd8d8239e931cf03c15c466bbec660fa7a155d6cb217885d2ef61b91f'
p346
aS'243f1bd902eebbd30e5df5f5941b294dc6f3a4d1c2adc33a94bb07bf189088aa'
p347
aS'd611ecde45335429bb43719b7bd9ed33d1eb7781a7f7de6182d0ee2bb8d4ac5d'
p348
aS'c084f9c2d3e1bd1f2ac877a0dbbbb354d965af318ac146af8a5e657ba8715796'
p349
aS'ecd1d2cb21b849b0185bda7e999b4a3976fe7891c2080128942e658dfa76f93b'
p350
aS'51eb8069c39c44e939a726055d659729779acca664d157fc19c24597e1825e95'
p351
aS'0a4c8a915442af0e9f5d10642472e3954f542c0bd0a716ef301c9efff77d83e3'
p352
aS'30b9ac53dd177fb352c18e3ca8e42470da63b7ad432240f9fed39e85cf3ddb80'
p353
aS'644f812b672a0ed1e0169b23c2f5fc3bbc5cdef866b2d4568d153bd7fcadb569'
p354
aS'880bb3a90ebc05d5d5195b8b875babc5b3aeb86efd8c22ae427194292f533136'
p355
aS'2559a024714a76bd067a2240ccddb0d77f14d3b9816e34bf92addf1a16639c8c'
p356
aS'ef64268827ee7ccc809d08c5d1e3aa9538802591fde759e12582ef32135d1432'
p357
aS'804a71d31ce4dac3eed9a77cba69f58e96dd3d97b0b502308a3107271976c0c8'
p358
aS'800fd8c616db5d5c0f65ebeb37945f0d4d7a62af5c40e5b8e7de73dd929e5fcd'
p359
aS'083a72294a6ad4bcf5b737020ec962140c3f112301b60fc1cee6060bd7268dc7'
p360
aS'34306266c6b46a2a63cf188db9680eef131b96f7c8ff4c8f136f0295f95f6808'
p361
aS'59019bbd881ace5e4fd6ea7a87f0425e00e2bd3769589a9c75483a0b5fb16889'
p362
aS'81563dc45782286c5e44c5d385535bd779382f27bc87b9bd141e769ca13c24bb'
p363
aS'cefe267b0c025dcb256160b025d682507e8aeaf8bcbefba715e2e8b73ea569db'
p364
aS'dde7653cfa06481ed5937fa6e1b7e5bff04a2db81d483f0d39445cec1f3384c9'
p365
aS'e201672402e4b87313fdaf855b97588dd85fa83af40de699c5fadfff2159b722'
p366
aS'a0d6538f42ceded497f46d859a489637866f237c1594e3150834c2c39df1a763'
p367
aS'9ad264b79c8e748d4ef38d6623568bff81781fd396b39055c2a220189acb9260'
p368
aS'b6aa004f626847a6e6429c1177da2385d38faf108c54eff63fadfab985e42c62'
p369
aS'4b64fa985fe21e9856a627d76e0b4c35f2d00e773ad90b8c85d94e02a60df542'
p370
aS'5865c22657dd268a5926a189b26c273a31ea956626cf8421d9683de4f126916f'
p371
aS'387ab5b3ae7300b2f8c658f8bb505c578fc471cec11b111ff390df60e10a89b6'
p372
aS'b7f990b28fb8d985e2b2b9b89e77a5046ad5e5586851cb430b32b8238f18b57c'
p373
aS'cebcff5730e3a7697f97453c9dc9f9854d0a172cc34d4b65f3b3e92aeeb99d00'
p374
aS'ae5901dfb51481285ad5844bbdf216f19ec53c594e53e9d449fc52cb320a9158'
p375
aS'70ad64d61bba65640bdf39cd6d568ce5ce1a044e73fb9f17b7a0f8614dd26966'
p376
aS'68b5a973fb9add958ec875d31b73dccce3d123da8e6ef439f3aee2464cc18565'
p377
aS'6a48b0942614449a3e0d9415fe51bf60d16c0e972f6a8414f6442124877481b1'
p378
aS'87a57514c53371fc4357e6dd1895546ca3d39f5ea1eb27673146b73280b9247f'
p379
aS'ad027a746675140841492c8e8148ec8498fbdbdba57dd0150438c868b8dbe760'
p380
aS'f20829ce7912c8bd38bc1614352a04049872c7cfd48f8608d9fd5b8d7fad6c6d'
p381
aS'c9aac4b2280be02bb3c8eadb2ceba9960e1fa29e57f8e48ac06d967dc687bf0b'
p382
aS'14d6345aefada36a5aa67cc83c2d1d11e026372e2e0f6a2d7860cc017f6395be'
p383
aS'b467599145517f9b120197f998a4b32a023894dac55648909d3e5fec642ed7d3'
p384
aS'd62496e276c8e8292fa4cbf1ff026f16df9675519169dd5ec3c74d1ba2030244'
p385
aS'1092395f6574e0abe20caa1f5332d84f6e021975e79dfe623cf74f02624acf1e'
p386
aS'676c5b9dbde07d9cd4f3702041103b55419b262b8edeb0e18ab6f20a595f79d0'
p387
aS'eac22cfdfd62d5712f4fc467ed90b68dc47b49c260f7b6563e0923139aaa6dce'
p388
aS'8de71e7c10fdfa8aeb97a09f469bfcfa929a1fd1b927e4aaf5382efcb9a4f0a2'
p389
aS'24292cfba04239b8eced0d1980865a2b7b0d572be9d797ae59d0c5d394514d68'
p390
aS'02e88ab48cd3e860881cdb90af1a00ac6a81df18e42b335335f3df58af30ed6f'
p391
aS'729e34b8dd9e7a3a1f6bbaa9b07f48fd48a637de898b1001890d89c8e4c4e29a'
p392
aS'80af807285c8378b9b906f40c36a6a81f3c78f54756cafa683be6afaab734da5'
p393
aS'd5d1cef5ac2c27de34a8ecd8bad00a9c13306b8256c7fdc998f7a3467728712a'
p394
aS'42523574396e4d2edf1c56fe64d97b8b96c86da4195a6f17b8dac3c58b94109f'
p395
aS'1f0ffb3f47594a8bad0a37c31656f946ea0e8ca8e502402780abcdc030af5e71'
p396
aS'8316f085d1e61fab6b370ecb201a41e6c27cf5043ab81b67ae326afd34b133bc'
p397
aS'5c54c44e731858213338aabb79999d2228293c2fd50cd84e64d25eb91250eec5'
p398
aS'b09928bf62fed77311b090d513f44fc3faa79f494f2dca380aeabbb47eb36c18'
p399
aS'1f67f0617c1f25b66e821e0599f9242cfbac343b2375527746f9ddf3bb3fb404'
p400
aS'2d932fa71039890d2eac7149ac95fa00e8c052e00c0621c9c47e896c73e46e85'
p401
aS'2a7e569d6dd9c4ead9967aaad037ca483e0029db07faff000cce4326c1f5516a'
p402
aS'63b7de6172fafee4f6e871c29ee8ff0547c318ca4f65361c9095f08235035098'
p403
aS'3a2b97581be973c3e264f799131806b17914d8d77cbaa9d30f0df8a0c4f5dd22'
p404
aS'36d6399e6458f047ee1836f3d1d78a9ea8a09d21b36c34afb5c9bbf50cce3ebe'
p405
aS'c5fa6b2db6e087032d2a15baae75e7e35dde95bde060132b7a4258ff83343299'
p406
aS'c847c3ffee86debcc2b11dc0d9238cacbcbdf2f648c5ff9e463394de7756a618'
p407
aS'f45d8c416f7f2c766a39db594c9887a0be2a8c9e4b6c03664713da3ca98769dd'
p408
aS'3f16b5dfc995bff9a90bf4c76cd6007529918448b04ba2df00dcde49a2b32e16'
p409
aS'542d6ac3c78e4864b12f5de7e0d41f4ebbe15f010cdfa3decde74a657ae9d758'
p410
aS'62929144f796f5aec1dc5b023a747c09dc999b450775f465ddd5a2d434fc219f'
p411
aS'2495bce1a3d69281a759b17e56812894a6db022b336cb7a2d73350cbeefbc8c9'
p412
aS'a15d1ff106811a5074bb0d789b8994aaa266ab70c159df4a175b290fcdf479b0'
p413
aS'b11dbdcc7df0bb63cbdf1c0c64a851dd2afd87362c6d67a2c61a019be7d08aa0'
p414
aS'31688c7b06c97fe5c2203b6d15ff006a6b2d026a46c271fa2483ddc4a8dc5ea2'
p415
aS'd8e9907fc47871b1c562caee7bcc0d170e3b46171273b99b93dabf9e208a7d12'
p416
aS'67c4ed20d2edd49217dd35f0fedcbf736334ba4721f159a19445e8a19fa2465c'
p417
aS'cdc9bc954fb0a379abee900729419f88309a35f571844f4a39670de27d44f4ef'
p418
aS'8debab41a070104562c563ac7bccb820bdfca14ae47d37698f882638f77a4add'
p419
aS'd372c8315b1917f397cbb99687e8d902c4fe3be89eb22fdc59cea9c5ce3c72d2'
p420
aS'8b9577de411295ee0776fbc752b47e8b41483835f7c621604b44bbe9a38df6a4'
p421
aS'a471a8bb943c7075b6862de4cad8825d079c8f273536f1d15e4ce001bb078918'
p422
aS'4a0fe2b2605abc4446edf8cc4025c731120d2a265d025c6c1e7cf2a4a32e4c89'
p423
aS'7ee83418bfc2f95ef690f6aae4fd4da0f3034922c163c6735db6317ff8446c3f'
p424
aS'93a36fe5405a0ac562429272d49f194109227559755fdc8221eafe4417ad68f3'
p425
aS'5293f11b283e3d3c0b69907e861d572b798dcb7a51ae52fe7475f4565bca1724'
p426
aS'45c4f53c2b0601387dc1716f1c46170c88cdc92dd2eb28bd403f452663cff487'
p427
aS'0a6725f034f6e7e3c087aec23fb08a538ea1067a73715da005f918ec13a010ca'
p428
aS'165d2170f38c17142b0ffe6aec80d3ab76f2284c3c747a968d80eb41bd7e10da'
p429
aS'a8b76d014dbd1424d529fd98c995bf8545e88956bb4b7070721d91f646d219b9'
p430
aS'a49e54f680b0d89506c0a51261372a83f0eedf52eb14432fe984e1b7d5cafe5e'
p431
aS'd7d84a27e7733f1735867572c76337e9c5e9765671c63b6fb44adaac9e6496da'
p432
aS'9c877c1bd419f44e87ceed02f708b7863e6f68cbc1ddf98f854bfccb012f6281'
p433
aS'634793ac115c9de49b330bb261d7d23af899c2bf5dd36fe56ed89eeb929f4d66'
p434
aS'5c1923f147a7fb3b871d796fb118ad862258357aa8ee00bbd99009c0936d8823'
p435
aS'1a6dbc4e26fc95123034633112949f07f389cec905b319d455985c55c5c5fae8'
p436
aS'650264454a43a12d22ab48f12768b88be96eb9e7dff264c122988aa58999f36d'
p437
aS'af7ac52860f07dd16b8764bcebd117a608d792e83023943cd4d145435aab12ed'
p438
aS'2a4f8d3cc779028e33a91689863e641d76d60068e642bfb30eb641e793c02d42'
p439
aS'e2eb99f699acfe3c888fdc5980d8994080c4910204435d912fcedb87e983cf1e'
p440
aS'5bd966c503d3688bcfa57cd16f09bb7894ff98353dd68e165283173c22f422cc'
p441
aS'f210864d1891ae362130d26816ff7a33766f12b55c45e19aa4cc26f0c681a67d'
p442
aS'9a395541f9ee0614e6573644e77760bd910937b827ef7e6814dd4dc60888c7fb'
p443
aS'7301be28a4a9f0506deed0e9f5b9c763e904a0fc64611e465658ecda14186588'
p444
aS'e000c97595e1848a05505cf5c547273bccd03556bc6b4bd04c90d098047d4638'
p445
aS'eae47627a54607644bc875bfaf6a6fa8483e0302b483e3ba11c1617663c6f06c'
p446
aS'c61e98094f69978bfcc8097dd223012c1c6d27926018759dd7bac67f096b59c3'
p447
aS'c59e73a6f542f7f9d376e41ebb2ae3c943f6be1bd198076d56a0c0723aa9dbf1'
p448
aS'4d4e6684ed3f6486e4fd5689337a79ca4e080c8b06e2ce656d111d374bbbcdd5'
p449
aS'190e5555ff74c41ed24c96c72813dd6ee1bf9782fd2709d048aec5eff1efa653'
p450
aS'bb0d07703b4d5bedf31441f8c888a581828ca36be6d13cb8555df4bd5e143449'
p451
aS'345bbacbd10fe59b943f5ee913251877d684fe44c940788dbb68db304c941bec'
p452
aS'c4491feffa87e5adab0ced4dc7664814aad1e4c2a384ed72c424860baade3bb4'
p453
aS'97d93f1da219e265700c381196ae1b2df1290929564584960687d386cadefeab'
p454
aS'4f7ed11ebf087e94e10c8cf1f3a088b660346e9b3159ff32994f30e04d29752a'
p455
aS'e47a60eed4c57b6c2de441c1e2fbcb895a95bf5f70e6652c2ce48975c51190d2'
p456
aS'606ba81bf3b3c76f3cae39e8c8d311da039ef73b77b7d174380810a226af451f'
p457
aS'854ee34428f80947bb154cfaf0c21443f0e33f5f27d1ddd0cd83e905e7ed2e39'
p458
aS'132f6ad74f96c6839c51953e85d35a6a1da5a30afcf606e193dc94a8001ca2a9'
p459
aS'1861d7e5a7527070e9605aab50a376461d9cad1f3a2e03fefdc5c2fcd1a8369b'
p460
aS'2b9ab17ecac61c979ab84997087a83d779243f230adb0212a9d7821ddaf34576'
p461
aS'c842b9c108a1861eea2a8698fff05210181c53a96d8434cffd409795bc693cb2'
p462
aS'70de87e4865bf5ed6d7a1f1ec831eb1f63746c97078ef175caa90cba4bb64e81'
p463
aS'babb890b7696c6f622d6bc34f4c2f8a9179677731a434d68a46fa700961a79c0'
p464
aS'f497088afe4fe559e1d33255de32ec18bdca45d27f8d309e311f49c60484f47e'
p465
aS'7773371b782f8159a599a035e6ec5b7c06e673fdcc18b35af1dd8353dc5fa4e8'
p466
aS'2653c5976bdaf3ecfc8ca510f30717b37436f8e23292b978d221c4832a1b7f52'
p467
aS'564a20a453ae13544bf76c9d32b9242e32237d4855d9af513530b6e4a531d101'
p468
aS'b84afdd35f52779af46dd4dc25752027f709817dc1c741ce1eb990c25ea1c2d5'
p469
aS'53a1f860cf86df05249b667acad9310868909eb41faffeceff080cf8c8e665e3'
p470
aS'fb020c9d69642eb089ae72707ef3b1903c87bac779bd4185179e562f0e7bca3c'
p471
aS'd3079e2594fc4f940a326d473589ca1c5b28d95f4fa66ebbd142e4120f3435e8'
p472
aS'0deaf9a6f88d3e92f34ebb2900fd57271e8c224fbca849d74ee56d2166d9e320'
p473
aS'0c166632189eb71065fd2044435c13555dab1beb4be38a4f635305accef68a44'
p474
aS'362aaf2f593109b0f51b1d576271f0dd2269a781fca66ecf42c5e917501c7b36'
p475
aS'60b7e3d637b0af6c516a3755788d135137ee8514e2daa8b1c839bbe24e3f21d7'
p476
aS'9792d600e54d6212839749ee519d43c1df4c9bd8c04df34744bba8960ae504e7'
p477
aS'3a533db75e2177b281ed6e22aee8c15a8fb16252b3dec9ce21cc3e9884cf22c6'
p478
aS'aac2f81fd6d9dd6a23c9bec386dba5fd72b561cd08326dc68151de75d6d785b1'
p479
aS'dacbf58f2a705703e7ed788d54efc21772e56535ffb4f1b95f5086648b1351b3'
p480
aS'8ae41488dc33ad0a004d915adf7e741d3066b2349ab52acb87d581acbfd5ecf1'
p481
aS'26455beaf9587820c80da47e843a28abdbdd168966fdf4a7a32adcac1f677863'
p482
aS'dd8448dad3157c424acb6ffac7a55354131570a28b1a92ff8ee9258e8328ed3f'
p483
aS'29a6e5e0ae60486dfa6e7fb86b1669e1de57d17d9b71845af7786b0c7951a840'
p484
aS'7b92bb889fc50cb10ce17953e6a6038d1724cd12ef7dc1f0e5c723cd51ef055f'
p485
aS'5b545e3321b39e48e462039a158d124ddca0bd246cf15e4424f8140ebdbce615'
p486
aS'7f8567c61b788763b8c162fa2d70869a9e2e8082c8330191557e6d96f46b8156'
p487
aS'c798092bfdf2fdf9e603f88f24a51bd59b5fca28653dae805542ed83b2336ee0'
p488
aS'0a2d42647798d45fd5ef11a12697ddb13b53e02b5ced70d23c7a7676a7ae2cc0'
p489
aS'4012ad0604efd9e720bf73f449655369fc7b9c3b3c49df63f90e08a1eb78465b'
p490
aS'527d26ed3165c28ee12ea19093627c40b8e0581f6c3371fd23f15a541befe6db'
p491
aS'3861f8b41a366f12c5d320d43c0e63739d9be86372a2a4eb221bd777738be075'
p492
aS'ab7ec3afcfa58edbebda68968cd5d242d6497025287b9e4cbe8701763765b1be'
p493
aS'a1704eba471fb2aebd11aab80ba80af2c954cd0114111bb6bd977fb176164021'
p494
aS'fa3d3b6d632dbfa4db5ec648f9c897b3bf5dd8b6fabf1c83885b9b789df49b77'
p495
aS'25aa5444b5005d4701a122bfdc2ca57aada6f2fa8ee20bed93165f412b8d4ce3'
p496
aS'7eb58dd4e9609bb7bfbbfcc243c9d553fe214a27fa5161269914da4088bf5117'
p497
aS'da226e62559fe727aa9930636084c965811dbdb64a2a13112741a8ed435121ca'
p498
aS'f8a5006387f03c9acf57970802e8e3580fc70867ffb8a0588b42998a617bfb69'
p499
aS'afc5a22ec703c36164fd8deff6276bbb61862634efc621142d08ce03742976e4'
p500
aS'5ba8dba8f73dfbbdbc2bc088d351dc2ca07f15480869046ab68f132622474780'
p501
aS'0906b2247243fa0d01ec8eb2d453ce066b6731573e224b1b16ece50b3ab967bc'
p502
aS'6e2c98400047bd2d06ef48b79b01d5d9b54471c2f316989e060bb73b95ad9a18'
p503
aS'b4a95880394d20efe9cefcbcb323815bd871190ee5b0c21734452b62f8b6da6f'
p504
aS'74e08cf3c75264f2de0c5151265a3bd5cb46d7f7f903f54b15e90f3ebb0f3bbd'
p505
aS'cf37576fbfca9c2ebe98b59c1a6891d6e8294faf81161584ab0fbad40d9481d0'
p506
aS'dcc7320f845bb7bbaaaf9fb5969526aad3a42c6214f574e07d2d8d59c5db9599'
p507
aS'2f62d4fdb5154b0dc9965a774e9414cca5747dd0e0153ac5119ba883ccb1fe18'
p508
aS'79790db3f80fb945dbf9e2bb3e37954bdda0019dcf171392963c3313ebe77b03'
p509
aS'6c97cb96d8b4cc797f4dae0c6ad881687e409e068109173bc624af2a2471e3a0'
p510
aS'089a093269157d2888e7e43b5dd569dd227a58582ccf97ee53ca6bee5a941744'
p511
aS'0f2bc6c87e9ba59b3642d1194350fba7c26317e8f8e6b38fe37e90600a9d833b'
p512
aS'ee1326551eb17123df7d15960cfc0ba8f31387019c3efb23e6b3ab7840bc184b'
p513
aS'56fe0ca30f2ec9f5855374d2cb10423570748b4e5ae0d621aabbee24bb1ab9c9'
p514
aS'709949cf958f05b0a2b53186a15f4063472551303f1334a5bd0d4f04ddc4b797'
p515
aS'545258126ef4f79296903b2e8df9592d1492938d54bfc3e63d68ad60f2fd16ff'
p516
aS'dd49e8ed302b9e387b82cac0f002f6f822c5c9852b305e162e38402181d6d9ef'
p517
aS'14ea9cb492f8e35baf5c1f923f2e031f0255cdbcf9f6600780b374b8707c3544'
p518
aS'46c089ef771980588c80f269027c504574c216ddaa2fa8250f0931dc17614e57'
p519
aS'304689a39bd5ed4258c55a1c9229e42a7b5acd9b1f64d0f9f7790eaeeb5f4cff'
p520
aS'14a1248f26133eddfdb96cc40fef75b34603a995f995a52be9b75b6124f5ea54'
p521
aS'0429da2d9fa0285f420c07d75c348283074215a75f85302781d6cc877724ed01'
p522
aS'c9f45510cbd226e2a85d71e002dcfb2293055761031b13d880bb3da22ff0b28c'
p523
aS'8bdefb0bfeaf9154193a07626b21521073befeb1d1c0c2e61b0e8ec89a3fff9c'
p524
aS'fecf555da87f5494b8cb472bc62adc9477a00dea027dc59d77561ccd4ba88f57'
p525
aS'0019298b0c0d8168f1026ab7348b56001dbb734a67815fb6a7cd9bbd615147df'
p526
aS'1437e68fe2970eb9c369bfd36f9db6c9d53f1d0a07f7bfa07b0115cdd68f3f8e'
p527
aS'029268ffed3d141bd306fd5aaee2fe904b83109a5e7b5a5ac5e305d9666aecd2'
p528
aS'b716109d81a1fefd48677344036c61600a793db27f46a45cd980c1931c9f203d'
p529
aS'dbf6578dd1fcd035b01fa29b7e84ec1f02b7ed5bcf9d83cc475646d5180c438a'
p530
aS'1b4b5dfa08fa11b598c0342a295c726379f8689705f57f3700d4cecb8f4c2480'
p531
aS'1a9c79d95da4cd693376cb347757ecfbc873a3dfe754e2d7d75f09cc28b8917d'
p532
aS'12a2a73ad5b60d09acd158ed75e584fdc3bf25121e3f6c3a8ba714e83a0fdeab'
p533
aS'df6ace872274cdf0b9745c0dd9a1214ff319618ae04f1ecce00a51cee3b51d5f'
p534
aS'e812028480223ae25661324c6f7bb9f97b63a3f86726de2542f7a826715d0e35'
p535
aS'7b555c06cde1ef2a6dfc2d7f077ec2a1a25a2856c904fd46d1996ed58c48d569'
p536
aS'8d22c7571a5b8fbb4a0ad0645dbb4d1e6c1270b991d911ddf833d2db38cdd4d9'
p537
aS'53f02649b79ba354b004c93addffd48ec691d9fcbe464a36a3452d8de200417e'
p538
aS'dcaaafac5c573ec4822b0a52989defa857836c509ea54565b1991cd28689f1e1'
p539
aS'06bfd343391d262fd4aaffd8bb0b536d9bd9162044f654bf584407f83daeedb4'
p540
aS'70b8605add75c8de15653d1259f347efdb89e7748cf2e24edf80b77765914b59'
p541
aS'48513afaa8a1602ae9ff60fe8182c45a86eb65fe9fb5188c449750c48976e7b4'
p542
aS'2e4e680a60caa924fb3f07c260944299df9b5c893a254ee92d8a9e507e2daaa2'
p543
aS'ca677e34289683caf6a4583d2dcbc74e350322fa5e33a04475772085427ccb30'
p544
aS'b913fccab80a19a3a2a20ef4314aac3c7dda0718644946978784c75fff3a221f'
p545
aS'dc02234a961ff8057c05cc3298f83a1672cf6112ef1ab2054561ea539994946b'
p546
aS'ee704f09251d7b3ca301cddb7ec41ec6143d5fbc05865ca1681ca98079d79f40'
p547
aS'403869f7a06af3b9702973562081cb6a7b25b0cb3fbfb417de442c2adce85f8d'
p548
aS'c623da6a8358e13264ed6264e576fc16a14446c15cfa3758189c08085d136108'
p549
aS'7aedba45e0fb7dc0dcfd8a5b0e874a2c743330d8e427e6b89abc78ae3f97fe2c'
p550
aS'654b751c2f32919df07076e87915c41aa4160d38517b3ede91cd0943cfa66e51'
p551
aS'b17cb7ce7354d3503d383d2b2a8307795ae6940b2c02a483d3a7feb46f0f65cc'
p552
aS'238dd85e9cea732e5909204eb0e780ad5e1080202160295a1e90120b7e1b607d'
p553
aS'd2b9205182baf4d596147c1a8aa832aeb7c4611334b7e54fe57803c0c0626f2f'
p554
aS'4c0292c16b0dda3126281494cd7232394ac8c8c562e05fddeb78e44a386630a8'
p555
aS'4f96c7a46d63da5eeabfba26e32e65f2c659902eaf800c3dc0c6262bc8ea7d08'
p556
aS'd1c6ef654eda2bd8ceed2307976640103c1c87d26914b98e0d88bcc7321d448f'
p557
aS'89b532b5223857975e5347b23851cea60a2214b8f8a69c90d81dcbbcd802d57a'
p558
aS'ab25562fb475660b7281c1f5c1fbe1a09ce4ac9210cea297e3cbdfd2a075bdea'
p559
aS'8cb1d1433c7a1c8ccd30de7c7e823740f328c8f70f7ed3a1b51c42407b8902da'
p560
aS'032b86d997c65101abeab6cbff769c34b349d0f443bfd40fb815ec400140202e'
p561
aS'cbf43e83babb65e4846e4927a08201b0641f0a7675507bddd08ad8dbb3d86506'
p562
aS'51254cbd8cee7a11bf8a55c5b5f8e9cd351eee8da2e953fd3318d5691ae42de2'
p563
aS'1f56280a5df5a862e26d298b8f8635013cd72a2c948a1ccb19e0ac81a4bf5097'
p564
aS'87f217aa51308d7b9fbc89b69a7901180901c3a1db79b1e8d301f8c509f4e635'
p565
aS'bf15734f7cb3b0e2cff7cad906727a041b9ce272eaa0826198ea2ae89f3944a5'
p566
aS'96b2a0ae1f703534c2261ddc2ac27205ec74af467a8dbb00d8286e1687cca246'
p567
aS'0c61a742da73dc4e3ea4b06a26ba67614e2066677f8fa760a252c5b84b33bc10'
p568
aS'7803d2f817c066335bc3fc9af90d2445b6d82510d80c882934ffc69222f73c1a'
p569
aS'549b7792549ce2a0fdcab3f3d9e0313993841ac39c19f494e83d38299580db1e'
p570
aS'cccb34f16517eca6af85aa17ec9deff657cc6c9be6f9bf8b756cccdeb3f2a4d1'
p571
aS'3bf0e044cb9bf7b388bcec7f9acb293728a29c074a3a4c3cd68d1c719da6916a'
p572
aS'e6b515824ad6664a3317091b8da71ecc720bdaa8c9fdedbe15fc38b44ecdb309'
p573
aS'07304a7d51d4e57ffbb91ace4a855e08320a9f2e7b0f3d1e5100c8c3d942b549'
p574
aS'c5380b012d966bfc90a51be69437ec6e53611063f959d2131e030de70fc1f75a'
p575
aS'53b2cccc8a2ecd4ddce04cb707aaf276f5bf15874ae21aabd43adbcc9f7180d1'
p576
aS'46b0a2f8c4b269d73b0221b16b2a2f376b7bb92a7a5f847ea5b6166fc3edb59b'
p577
aS'0a39ce5cf9e0dabe237c288744007b2c2b2e90c035d49d57ba806b8b70e17701'
p578
aS'8b0f97ecaa11ecdf27bae15865d54be1b8568bd8416de026897b9ca3436871f8'
p579
aS'0c3132ac40f60872f729ed74d10167f64617a51de284baa308a58ea83b11eb3c'
p580
aS'ce07dca452aee96847a9d2c0a7a7f36482265d8ba4aae767698cbeed745a80b1'
p581
aS'cd2a902c0e03e9b6b0101425162fc9b9bf6bb191a6dd91ae931f571638edee86'
p582
aS'ef1e4aa0567e2e20e13c8ce0e260c7ac1baa1bc977fd37c2db42b1bef9b54003'
p583
aS'4fe0733bb4d26e04f3ff4357e43712bb652248020a2d7462d2a3409ede507c32'
p584
aS'6a553e629bbf3b3b2d7c0109fba2760dce194e4f1200f9c9e0f99debfb7b6efd'
p585
aS'69761423f5ddddbda779f21baf791614a803b3c839a1a4274b4a35de220ddda2'
p586
aS'752546754683da6f1023a607f087a04fef1a4f27247955d110aae866ded2ce06'
p587
aS'536066f11e83e7f880056339a6be7159496e7cc813bc8f224b61ce0e9e43a128'
p588
aS'fe8af1dd0a894fbd2d8f253dc76bf63d14899eab3466759031869e301e8a9b34'
p589
aS'455463996dcc3140b49e5d5a7700c23a48ef635d7fc8e5d15ff3af9bb194fea2'
p590
aS'cdfa786f8f198b270c204b60e193483276dcb783ecf5b6bd2cb1178b9fb27d11'
p591
aS'9c0496afda91d9155f61c4fcbb72eb901dc60b56c046584013f4a456d77d9b92'
p592
aS'b9906dd93c5e3b7ca78de5d89b97ca850bc292a83c383af9ac9a08bd7087b5b7'
p593
aS'843397b7fcc297fe067fc7959aa129ac0c0e6c303113dbcc0245478dccd79998'
p594
aS'100035ddd7126816fc1b442e5107b8c5e77f4bc32d58dafc635e921f298cbbf9'
p595
aS'29492d4820f7522c1e02c47aaafac98c76dbf448c1f636f975c8438b5a76be5c'
p596
aS'1b381a7c49ef58ca560ae8f5be33c02788ae51df470216ea5e59ca731eceac9c'
p597
aS'8506811f43e036adc6dbd664899abce4864951ad68a58d06e78c1d5030fb1ff5'
p598
aS'ea69604d21d4d4eac6f6690ff8c40f66c552f21440823b2fc42a791a18b50b1b'
p599
aS'973df2d824d5adf3669844058045a576798bfdb01f45587b61282e18b099caeb'
p600
aS'75f91cf6746325948a459b6fd4c79f61fe8ba6bd7ed0209668d5ffb167a68dcb'
p601
aS'95dfaf00936b8dd9357ad94ec3e707dfc638202725545739c151c74fec6f6753'
p602
aS'857ca16147bc95d624d8027d17c2262ac081e903f29d0f16e0c7a787b10f4af4'
p603
aS'3c07be9c3dc3a36513963d91802a430b2a40e22e6308b22a2e50cf1420d83580'
p604
aS'57ee33538a0a3a68082e32bb7f66ea590f6ffd773e48a02e12cd363be4008f3e'
p605
aS'736cf648dbbcf27e5de00b802af51c8783610eef69dc8009d403cd055bfb362a'
p606
aS'fff4c933be8f77ee40a59b1f2e6d0fd71d316014d404122bc3e7f2ff4e09579e'
p607
aS'723f4da904db9523c9d7de1451372add7ec6093c7024ff6315e7c282930700ae'
p608
aS'2228ef43f2f0691615c882e88a7750ec61f2b9cf89c042a325f59fb64c33e808'
p609
aS'c0a6b543b9f153fad37928a7dd692b92fb9cb6bf35fd5c540fcf2d17ea172fbe'
p610
aS'ac6e6d67d5e14c8ac64abdcd1a311143f5ee2287da761423aaab0ee34ed54da0'
p611
aS'a664e239df69ed601e4573008ede5b42d3624fbc52ab5c6ce32ea4d0ada01123'
p612
aS'bcf9f29ce8aa683eb4b63c618f9cef1530a8076e620483f3c15d19651c4b9c42'
p613
aS'812d49feaba99fd041f78eaae111a4b4b5a1060df987fe7494951cea0c5fd70a'
p614
aS'6da53111f05cc2b2587531366fde87681436b3b56e9e80371e5f173880d1226f'
p615
aS'958bea5d35ebfa6f0d724035b3181b6ac92f247904f8d9515a270774d05c9ee7'
p616
aS'ae08a0b2d623edbfc647ba6841cf4c74226e4c073b9d2c035d3478a38f0c7aed'
p617
aS'c76741b2501cea2c75cc3c683fab4d7a9b8f0cbc4f47aa247c24f0be6ccde004'
p618
aS'eaa3a067ea0556cef5c461045ee7be1ed32588303aeb6eee1ed2fea928dffc21'
p619
aS'0ae6dcf17a1af43e6f3ef830665cc50c9867e4874d2acde385316678062f023d'
p620
aS'430cdfb8662bc3430e4663fd35de170448981128ff2053dc8042007952576aa1'
p621
aS'a7134b630353c08b690c9962504210232b8ae7f4fbe42a9d8d38a6f30c57aea8'
p622
aS'37ff4454d15d37fb07073e2b2a1a2efeab541ee8ca858f757dd727b21702605e'
p623
aS'55a611900043064be761c309859f4046559badb6f031d2e4fc3d39ef59b49cee'
p624
aS'0276bc0d2409b3adba8e00ef7d503d6c61c2d6ea822679256dfdb355676207fe'
p625
aS'2686c536a9e37fe9b28aabe0181043611ce98267d97647f3bf7675a0e1d895a4'
p626
aS'e1c19149ef91abced4c3d39dbd5845be981716077265a8201dafceeefbebef76'
p627
aS'392217aaa92434f84946aa300fe9825db3ad0e98dd888aea74637637fd00fd2c'
p628
aS'adb2c3ecb82bd7ae77091ae3529be37ba464fea0310aae09158c90e6421800d7'
p629
aS'a4dda0fb0f87654fd2082d0184d5512ccd9725ee37e2fb6dfef8277b87d0aba3'
p630
aS'e2ac8000eb3f463036630e607ac6e30941e434da9a49175664dbcf4a846b4720'
p631
aS'100b65ff1b7b8cecf11d5f5c3026eb745ea0495549c59accfddecce0828f5362'
p632
aS'f4ae9d787854db7a12cd2dcfc649f5ab60a9b920b8884e5978c98c6993f249d6'
p633
aS'f990c3ab54958e8a071d575e14088de14507f0f178d27b34ed8086b722327d6c'
p634
aS'0a48bd21f6bec5f08c3effb11f46bfc17acff082e2cefb6c5c467e6584f32700'
p635
aS'15c4cb3bc7305d7d94bca5a5032bb205c652bc53b434fbde7c48cffcf11c0d3e'
p636
aS'5b6d385beedce7a379815793fb690520f4d711ec3697558f7d1a1d2ef136ea61'
p637
aS'3f856cf3da37b8d23fb8929b7caba62b6e44ccadfb840137af6529a026bfbdeb'
p638
aS'c75a35d06a665c5460f7950ee865ad00548b4c02cb1f32b7c06ab2da1a1fc143'
p639
aS'c89bd595edf77d1afb4a995c51975d9afc5fc986854eeee575cc4db5efc1f3f6'
p640
aS'f84a9323ed2b3f4be95f2e0fe30e74ce9bb78b27c5b9ae16ed1f67f19d03b668'
p641
aS'8fedc8f06843e5f187e6b5135eefc1557a3963e26eff416043ec93fb0a60bf65'
p642
aS'df78d7b002a0d8bd2898d8ea27f09a2aadecaf9511c21139424042d85bfec46f'
p643
aS'efced8cb7f0dc8358ac70addc85bab56d6cf6210520b07f880719f40dee1f48a'
p644
aS'644642b0344156408a271d5e0f28ffbb389a9c663d7f746648b8aa80faa500a5'
p645
aS'91bc959cca238069b51f1b32221b46780ce699958338d37df72329376823bb57'
p646
aS'e1acb614cae684662ee1000ea0743a3dcbdb40a0b0d332dc21f757840b369a41'
p647
aS'f349f41306da86ae9b1a51743c38659e661fa2ad114ebd90a31b2d5def635aac'
p648
aS'360d0eaeabd7546bd0402eea1f1f1d39ee88dcb09bd6f6945cb45410b9a10099'
p649
aS'2236a6f6955960034bd91890e5931eb8d000f880e81f7d2bb9f7b54e0332ae44'
p650
aS'6f0dfe3ae60e62608d791b86b8b6a7b25e965aa02825556b97ec41f6cf7eb075'
p651
aS'f32631703525f86315f72575a82e676d8cd5874bff6d3e55fa67b2b0975843c2'
p652
aS'e1b47169f8e7ae227af7fc44b5ebd824a23a0c2e603e4fd1acc98d695418d37a'
p653
aS'fe5958438bd40fe57ed8f479221fabd54cff70bab70c73f1be28756db82a0fea'
p654
aS'f1aaebca306c0f670c584e9a469be39a802e78424358ac76afc5797a1146ee06'
p655
aS'9791965225091f80281b9b8eaba67ac74c019335750f06b8e02ba1e27f8e1e74'
p656
aS'fd3b5632e1b589187161e7412f4aabfb5b6407005bf1531d4336e2861467dd80'
p657
aS'c87c280dfd4b4991c920933b2353ab0069783fce9367ccafcc260a3ed0af3c99'
p658
aS'79281898c9d6a1f67509c98f2af2c617c33b77c9463078cc7533a39b198a6371'
p659
aS'8622ebe299c4db4c9654f1e5f108f33994fd3e50f664a7f8e2e9cabfbced26a7'
p660
aS'8d6dfc016e5368816273d38d7bc3388a6b9152e281d8402827892e48ac75c635'
p661
aS'cd3dffef8adc5f22d19f3494f1fc435a31a5f4452f50e9e49b55e1e88ea20e51'
p662
aS'9ebc2001f4f6556c644d7495a55e5c70b1a3b41fd3f11d5d88ce939e017d7631'
p663
aS'dda9e6be22e9cfa42635d7975ec2e7038cc24aff11f50130bb80e03d33a22192'
p664
aS'1a71f03115b2a84a516b067d05cebd851b8c74258ea8ef39966d53f7253d6370'
p665
aS'b5592a80c5f4fff38571a797725fc095a8118ca3297f9c23ab5c642aa9d5c8d0'
p666
aS'5644156df7d9b6ad7dad060814c4f662a2e08fcd854bd9785d7f66f5325297a3'
p667
aS'82fb81be3a43e5fb8fb597fc75e0cf5cec00f97bde0f5488725656e08275636c'
p668
aS'68d2a371c352c791f3fddee1f21fb46b8b9212374cec058a031ee2bacf2649f3'
p669
aS'9bcb3d63678602953241aa70185e6154bb39104368a14fd76ac2d89b7ff1a000'
p670
aS'07ce0fddd96639a749a89f185c628b783bba05958c0018d3b1655e4854734a4a'
p671
aS'62a2a90fef0cfd18c8bf4b5157aa521e9abff3195598c978a5c3dd6d9c0f9540'
p672
aS'ef7bfba2a26c5721944679ea287d0c87e3c0b46207ce7498cabcc1de6ce3c914'
p673
aS'b73b74cb899b369a15eb4539fb9fc32d6ec87f9eb594ada679e9277f60bddeb8'
p674
aS'c1d321a1623a39971161221a817dd4593f1fb04c04fda2da51e2a2ab209306ba'
p675
aS'56fb10d13303e2324d4ac29b3c3f312b48826e5ac641acd7a0405584d9981343'
p676
aS'36c3b75d66b5c06097230aa0a59b57a02e97089fc2ee50921f01468de471d7c6'
p677
aS'6bb261d92bb1b071fd4d67d7ecdb65dc1b9f578bf120e9e2efc24942fcb27626'
p678
aS'3cda4b274264f715d9abadd6f805b9d9ec219f4eeeb1f37b65d35efa5fbd6169'
p679
aS'f298bff91ff925dc940087269dbfc95ada3d4db15bfebaeb59f1124fd7b85ce2'
p680
aS'fcf86e5b4d5dc7da9b271c8eb6c1ddc6fbc00482325ef9d5ee5baa6853172c5d'
p681
aS'73dbb532f8a3e4611c6ffe9ad2746f26bf57bb47478efe509d9de3845d83959d'
p682
aS'794660daa8b02319b12ae0e1778c665716db7fdc5524b5e4b6e7421d62b10d12'
p683
aS'627ad2003b6ae693457025cc2bf72d994ed48f96dd614116a00ca52d96c7b3cf'
p684
aS'7a57e3a482a8afc322448ee1210c793a6bdece758c35426439aeb3b4a0af3fb8'
p685
aS'11eb76f2568454e5ff1478f4aa1aed50b05c13e760de324595616c39677ec1f4'
p686
aS'9134ac588cd7e372792f4be74192e75b38931bb7d7d2ddbecba68e790b76e9ae'
p687
aS'eea0659fd6b8c0fcb536863c6d8fec4fef4065d6bbd44889c9620d3c27f32b03'
p688
aS'046d41ac7d7827d73f9016970d0ecffd95bcce28c8dfcfd176686500fc34212e'
p689
aS'03cdf2e33da1084da5cabb4464dc72ba665c101caaae62689d9180be75ce4b35'
p690
aS'dd0d0c5224ed55c839a81353a6820b9940cf2d9d7de275ae64ee10c48fd1e638'
p691
aS'f1574ad6eeb2297f1302e08b9d950a5d330b156e6ae7a23dde2060c8c0fac69b'
p692
aS'def9de55ec25989587218248347e48586dcc9c20494ff8929283924f356fe3ce'
p693
aS'98b8b16fa27094d4ef48ed0809fc143704f803e09c805486b44616a259963064'
p694
aS'63b2371d9064e6c89b20f078694fdd6a26eeb5ba9f7e75091664cb4ba48c2fd2'
p695
aS'ff86e01bd90bec46774c6a02685ec35d4ed9b323d5cc13c187347f598d9df97c'
p696
aS'd7733e79dfe84c996aa2a9ac2cfa6ab45c34985c126230bc42379517a72988ed'
p697
aS'a44c7a608bb6014c59e03188704c4160c45227e039654d7507dc97504ad8b279'
p698
aS'157c27963ea14c041e0e8ec64a33481913a5f268001c49a7af3d947f2250e317'
p699
aS'0d8c704d51bbe9eac78bc479b4d8fc1009c74a760675c5b3635d2ec6a0395901'
p700
aS'af36760ef38d5660ccd59cd852152234cdcff0ffabeb01ae0ecaeda771b71de2'
p701
aS'02d8513e063e8d584a293b4e3809f1e9addbbe58de78be00648f930dbb75dc1a'
p702
aS'8376db8a70342c7f6841457bbc8a5f369597d8a172b633bf31d620b708f2de2b'
p703
aS'ea9dc35fae5901c396002708ffd132e6e3ba3e7de435ab41b755a837aa59c371'
p704
aS'b69b04e2bdd1e499c804223502dcef2cb8406f79e89cf3a5dc0b74db19e012ed'
p705
aS'566cefcef7a317d5c2da49178032a96ecd4353e533d7f52776a83608d960577f'
p706
aS'3668df092a58ccf6c8fd917a2244c629c0c84e1e70bb968b6b1413ccdcf7aa2b'
p707
aS'8a963e88c34cea3159e845e0fe9431ea36a380207686241a4d11cc59508c26ad'
p708
aS'ddd733ab12ce34f9ad6c85ffa837757a4e093cdfe22c02a944284205cf3410f8'
p709
aS'0723cd5fabddaa48f3603e443c956bb67c797db4d741adc233e87b3a6d292ed1'
p710
aS'29af57a72fb66587c5433f09b337f2f9532a7c353bf8f26b9b121f9399c5fd4f'
p711
aS'a7020c93fc00119722a33fb4e46ec50ea4c472dd4d16c20b19fced64749e2e3b'
p712
aS'2a377226d52fc36567ad584d3f85c3aeb2b74b46413287b786204a537104d7bf'
p713
aS'daa6037fe1bba6cd241ce9bb623247ed64f7a01bf07d2dd1dfa1d71658d2808c'
p714
aS'9a66f8fc2bc0a1f63696d81434956964a97771375ed478a47b123e5beadde71d'
p715
aS'4633f393e27cd4b0bf22bcb5da2f43caf48399ba1644a4355efcbf2fb9824505'
p716
aS'5fb9707ccde345c18e0fd1260354b2211bad4ce17dc7aa34283bd27092f45e65'
p717
aS'60fceb1dffebfe90dd3966e790c227f0b307463060b9254e7e5743f51337526e'
p718
aS'0dfcbb3e0e826d238c4cfdc73e7531b4d9aed63c2f3183764a3cf88e5925d9e0'
p719
aS'5bf419317141177453dcd25112d1627228970542be57113fc52b367cded38880'
p720
aS'4dad3f7c82d58a3dc7c15b83e7749d3d5d80b570286b9e69b3ac92ae95b6b4a4'
p721
aS'305285d1f100ffdc83bde2d7ab59f9a2f39c53f55978d46eab18a9fc446d18e4'
p722
aS'd1079bc4fcb2c79e18b7afcc6caa36d626e50e45a941ae6178af122d31e74fc2'
p723
aS'03375052883d7a08639b7e3545292bfb78017ea8be477644ce959958732fa809'
p724
aS'9e7b78f486e4212c6d310a537d69eddf6f26f194789c2b75a19b1da96371cc4b'
p725
aS'9947ece82f49aad42dec3ff671fad8d18372512a452b3b2ad590a7febda9d7e9'
p726
aS'af450b866e581c0ba4304f08b9bbc41b89062af1e0abdb230b26b293b0505c0a'
p727
aS'391513454479c1238c05d8ceb015a854872ef6a5e7b7ef6afb5e59a341c6b332'
p728
aS'3578923e34e23c6c1a27a6cb56a922d422f7837de49253629cf3b145db704d1b'
p729
aS'551ace4f3ea59c91442e73e6c1081f833bd4abcb643be5ab40b2cfe33bc2648f'
p730
aS'9029f8028aaa425c69742500636761df97c55057e975e5aad6a98799d51431e1'
p731
aS'07e8d30bcf4ac9c94a0da872bdae83e7a1dd14969575ab8547035dc56dcc3e1f'
p732
aS'670a4ffe00f92ff1f06043cac900c82e75b081513ae7265439cad42f4ebcf0d5'
p733
aS'76f11988abb916fd46c205e376b59f78e6056798d199275dee277a7c19e95727'
p734
aS'2eb83cacd7406296978fe47ae296bfec4ed1be94bfa715487ad6eaad6152271a'
p735
aS'045d4ee39dc8687de95de511d368e1f99e31e1529212e327e13dd11419b0cb76'
p736
aS'77d0e31872dd7a464b187844901509c192bca5d4d6d45f30a7c7409f72ea641f'
p737
aS'b151659c48103dedf9e6cfcf4ac24f3cf6c27002f5aac86ec8b5456fe6edefb9'
p738
aS'3f8b9fc9c9e129ba32ca843db9f40cb09e58797449a5c103c50d3b5888c393bc'
p739
aS'91035a5d131f68fc1de97cd0a0ea5e94a30cb9bcc079ddf9a6ac3efee1fb7134'
p740
aS'84a59d0051078bc84702872df6b44ad56f149c6282c74f50ad59607151e61dab'
p741
aS'a261eb713e34fa3e6b629f1ebf14a14e455a92091c40c34c4dd5d6e5e956171f'
p742
aS'3411fb10c2eb8f5016acd4f434cf56cf612fed711edad3d40ab9fa8db2d2d328'
p743
aS'ea29851295e2beb794151c446d1b989c975cb1e09330a32858cea91eed11ccdb'
p744
aS'aee0d18c5ac1d4e9de9fa4f357d16b34064d44c382fbc127d608635419cb9439'
p745
aS'c0af045bf2f7d3fab049138b77c6274897ce70f5ce62fa068e0cd51393532ee8'
p746
aS'34d50fbff39392a85de62b4661832f94201a2d868ef9de5e16e29a19f385a5c8'
p747
aS'c4202e61217b0c2e56a71567bbbcf3284bff2ae2a8f71c5a15f894c3af2dc449'
p748
aS'03bb4f526f8e76ed2eeb58b2fbea4cea832fc17de13898cad2fa6c4a205738c3'
p749
aS'123fff98397e2e4fe52099c794afc4851cfd3dee2616e8540573ff5f112d6c39'
p750
aS'7c7c53c03c88cc826aeec80020e4e25eaa640d60d247dfa040dcba5c3dfc7b0e'
p751
aS'7b2658824476efcfb4e11b3c72b40856839e0d3df0f3c5ba57c62cd9e35cb104'
p752
aS'8c063ad126dd4dc516b0e1fe74bc24e0d788158499dd21840be18d291419f96a'
p753
aS'0fad9f0891a52ce47ffeb7009a2e7298d9344e119a2c6c74dde3e8c3f59b4736'
p754
aS'510fd0f63639305f10c2217f54ec6f8cb1c29a45105cdf7bdb9a42f08a2de820'
p755
aS'eefd8383bcdf01e066d9164e51c6fedb2bcf6cc8d112993ef2ea7d70312f13ac'
p756
aS'0fbe3a6732dde42846a02bd717089d1bccda4614e7005eaa298264dd490dcc86'
p757
aS'58c8c72c58c1a24bada4aac36b7b37e8666d4788c2aac64fec51ef1349c64316'
p758
aS'9f588cdf66b4c0829e9b07d0cc5e46ff0630aeb42b578c16faf11635796fb079'
p759
aS'2c77cd501e22a4e30fadf0f166f59d0e95bde30b735270ccbcf9d60e182eaf68'
p760
aS'd469639e3b8af040b16f5e809396034543086cc23f0a0a909e8afcdc7ae48c8a'
p761
aS'82828349ec03c3076c7f9f6316b919130a10c9467fd0129ae1b4662d9c217e84'
p762
aS'4499e035c188adef7058a9f13047623112c199d0f1dba61b88e0c40035e5214e'
p763
aS'886ba432241df4bdb1a6fd4c1180a98ed06252d968d8682745cec1868b7bb5a7'
p764
aS'0ecb7b794b6e2722597426c502b52f4ac553ed502627ebd7932f075649d8c2aa'
p765
aS'edd8ce6444ce2d07c47a31c832ff9a0af2368b1782156ff545092aa6ef67fabf'
p766
aS'bb651f182c23d7a2d9d964d855fece813f62ada739508afef72f7563c41f1635'
p767
aS'fda85f2181dba41363574e7623bb4950e67d3b8600e63847305dede462eee6e9'
p768
aS'b7f638cf3bf4b3c4e89f75bd74043b0fbb6aeb778f5924f424057ec7268816fa'
p769
aS'a6ca827a2bd1a5f6362d886a1d95ef786fdbaa2b31d8c2e2095cbfda4cddc14e'
p770
aS'72634e3b8ab76f3d4640a8b69fff9e1d4a7954677d8a9b486a35ebb209fad92e'
p771
aS'8ab112573d4ef2bcf86d722c23bfdc2581333c4154df350d7342fa65b6bb0a4b'
p772
aS'0d23adc13c7d7e544c66a6b06914077e781fb94698c849ba7b6c4517bd8f75cd'
p773
aS'9bfd7aac80f5833248bea9b4ab6aefb29814ab3f89dabc52d6b2373d4ce7be0d'
p774
aS'0235b95aec15d72a685b2aefc24f72a641cb01d5541474f63e87883fe7e50589'
p775
aS'fa8976200efabab327cd6f57fd0db8c1469d0fc0613555d65c6231021346b82d'
p776
aS'7f2caac2747e6d49aa8a47366970036980d93b97b9c5bcf8095b563844b65d02'
p777
aS'adf5898b4f79da04d46cfec795900869adfeb61452eba9b1ed159956d85688ea'
p778
aS'91ae5ffcb36df91cbc5dcb1e8a29c710c876196ccb28a0f723c77b00757eba96'
p779
aS'bcaa1b4d8eb227ac4ac177f962670de73f89e5bb75f81ea55f1c0604e850f0b4'
p780
aS'365a58b558519588313328c74cd4a34b6efeb740a23fc073f271b43718526fb2'
p781
aS'3d6e088884ded3ce2aab5dcb55b525949be70381fcbe46869622301695bd4274'
p782
aS'06fce230e4c871f3e95b4480d2cacee4ca9f43b7d1388bb98fcb647b2740fb45'
p783
aS'da37c026dd05d09eff6cc0c3a8e2cdfb0889cfbc1a9d3fe036c4f034721dcf6a'
p784
aS'a19d7f94de42485436e4a31cdcbeab7847f8ce1b4e6922caca0281b4a068eed0'
p785
aS'067552ff5c99abd2eea04fa1d71cd12d9ef546c0f1b4b0eb2d953b9801ac77cb'
p786
aS'772e4b040b38b54cb637947f34ef20ea5ec952979a80bbaa8084634c05190cb3'
p787
aS'3ace88603f6c93a9e67f644ea42dcb982c4bacac98fa2c42e562197425c1ea38'
p788
aS'c076b063b81e6214af396acc61cff2f6c923b1fd72bfc6d89dc801a806de2759'
p789
aS'8990114553aed77cd9725323c5a486cc059712137ef2ec1edfbd4fa2124df7e3'
p790
aS'3c7539fe2526bc079cd1adb38e81d710dd45cccff54d86036dc2580105d5a54a'
p791
aS'a0febe18c4c50e1b8193335e4dabb416fad8b756d35c5c5a890b9f4ff9b1bd09'
p792
aS'29a4b646a8f717a60b7426115a2dc02b773adc9d26a36054f759fda3aafa9b04'
p793
aS'367d65f23c05833a685639f19409d8471b8931d99191194327cf6e3f9f008c6f'
p794
aS'4ae8a0a224beabc2ef1f335b1ae6f87a8f2e29b24b33b6ff77232d750c0eae59'
p795
aS'b116719857a0ef42b0042a34a6a63725ff4ac4430627890a3c1667765ae763c8'
p796
aS'9b8cb33eb4c77b4cc04d5b4d7d32a4f35c099412d139871c608a01dde8678e9b'
p797
aS'411d068067f82e9ab3072457b413eb0ee616dc21b79cc626e3a0f8acdfa57a93'
p798
aS'37d209e42fb7e950271badf32cecdd1e1b3d04ec0e4a3631988570f8c26382ac'
p799
aS'b696167c6e66fba2f7ed328c04501fd25a20315e563c203df4491a66e5daaf97'
p800
aS'91782251293e0f9b61b29c935ebf59f0d047cccea05529de285605fb59804cd9'
p801
aS'c6f4cfeb37d473a8dd82512e9f3866ac238b78921f73aac170e13cb0061c8e05'
p802
aS'8dd994948c9dca74c5413d6953ab7a2719a648dc6622fc8710e5d49f47d99363'
p803
aS'cc08f421fd50320d130b0b61680caaa928f4afe3b3dc103e8bee194d1bad760f'
p804
aS'e0fcddae4bacd9d17e49e4175e236666900f9f87168a808bd3af281e8d153237'
p805
aS'877b24bd7e92eedfacedd2262fdfc74a1279ebf29b38915db7d967f2748b0cc6'
p806
aS'18d98c7b258cc26160a3a7531ef4a52616366bb618cd733f725726906cac30f3'
p807
aS'7a877829e61887ae8591636b9af3c8153c6a742c3d7a3e564fb5ae6dbfa17245'
p808
aS'0e9b5ef92d8c08b5c23aaf683dce6ffbaa56f92fe9f9f1a3fd6d6a689b4cddf8'
p809
aS'f65a2c98922252ff660ebdb168440706fcfc9280b89566bb3d8ee67d4b4d33b3'
p810
aS'228d0ccb8b676de2caa62335205ee9b7a4faac05f9e27af96b3904c2e7a2b73d'
p811
aS'e3a38c7150fd8eb64d988e92d4ab968a51735ec137b3028539e257d2213857e8'
p812
aS'6b6208625bd50ce05c8f33bff64101fab34ef10b8c71fa3dcc1d0bc64a952b2f'
p813
aS'1a51590b143d050a344b0b1887df2338bf085f14374cd9e12a3331d321f0cf6a'
p814
aS'25537b1da4cf68c3a10d51d5502231595eb04eecc35391f78e4c3947e8d100ca'
p815
aS'75e6586c5f9543f11a96a9245d71da0bc8b5193a2f2388be83afcdaa44e808cd'
p816
aS'd8b7688474191eb51e8bb1df164f2e8f8fdd940d8220f6fca75a668928014643'
p817
aS'cd91a9d11db02610e642e7220632bae556b9cd7b7376c490f96a9b6587cd9716'
p818
aS'32a6581b7556f8fee9b0af1bdf156f299e02a6ff5a7d2ef709a820d3d6b8c9df'
p819
aS'38dd04b5869fc79d4c10d6db49fb2193ec644cd3caf2aa7d5319a2582b7b5b22'
p820
aS'2caa4b649755bf45fa32fece77e587b99dd5249091ae3281c56e9ecb9addb865'
p821
aS'17933a60ccd39da5692f1382f0afbd06c3ab2e0a4ad2cf89320c7671b194c7f8'
p822
aS'b1707d302aff0ec823a5caf89ce0c77e0c3e18520ee001c52af3ef5c0a281b85'
p823
aS'78eb2f094b39d95431a4b8070bcd70682a4c8fd5acabe855a9c5cc434aca9484'
p824
aS'c26987691eea23ddf70451872439d44e842a12fba789913b74806e2e1442d815'
p825
aS'3a08f56deb6567238b7f6679443e4ef77d58cc05fd8b1ff43ba34eca026d7a87'
p826
aS'22d8b7f151d513175e2fa951fe6acf53e4feadc3201bf2945637af8b2decb76a'
p827
aS'fc102d88292cf1e190d38127cb07f61a459e84c8a02df5dba2864ca55b051943'
p828
aS'44247abbfe7b5c25eb4f2299047590864b0a74491c285b34019267bc31c44a8c'
p829
aS'70dfaa74b845db9331a0d82b071e45da41f1e616d838845d72020dfb051bf698'
p830
aS'7a3411d8f54487fa9434546a3dffa37ad6d7b8d94e120180be36b49cba0191e5'
p831
aS'9269e5fcea495f7d25cd9636a5b6366d15a781263ed17d5bc95889fed47c175a'
p832
aS'ef3f83d58bd03dfbbb5e8cf599334317189f792571416ee57a9184b67c2a57b3'
p833
aS'd9781e367a9d0a7713314a20a702c71c271dc196702cbdc36b329d59ce457e0b'
p834
aS'da02de2b1287d07d39db735dcda8a5e9453db62bc1cdb2ad1a2b3c29d7bf5874'
p835
aS'35877cf97128d7e9bedc95b4dc74f1f2f79e8f109298afa0e1ceb895f1976d32'
p836
aS'aabcc9fb51e41d2b8b64dc91fe15d2e0f32b3d8ae1092e4b02ca51501fd9fc16'
p837
aS'8225cd50e969d15eb9f6752efbede517815ec73b4bfb2b0cbf46012caf01ad8c'
p838
aS'fe45b92c211d6a8f15721c11164212779cce75f2cb189567053e1e737a0793bd'
p839
aS'474225f23ee4138cdc9234f53c08bcb953cb2df3f2057df4d5392ba24fe92579'
p840
aS'3f8f721e23c0bc02a85d05b843af71ed40587b17ca90ac34b803e198b3be5d01'
p841
aS'fd73c56f524f1ace127d34abc5bedfbb5bd72822aa716c4cf1238e2883e763ea'
p842
aS'070aaecb2c0d669b788706914e57c6ccdf0143ef93051ec509e163b831016b69'
p843
aS'eb16294ec00c8ea625342d6c174a18f3b187b83b9064323e2690a34c48a5947d'
p844
aS'cfb82710f2d6c80d9c6e61c4d7b8fa78c7a3f3f14ad4ac0bc4e42d481b3ab40e'
p845
aS'ef730b35a25f3f5922039242872fece075bffa2a2ae7fe8f11d0d112e1a9ef19'
p846
aS'1e1aabbd4851b036a9a8bd9f557d95e4a926dabf1ff8a8174c0feb5dd88079c3'
p847
aS'9d51016e8c449cf1fb9158f2582e43d7da967078c39441fe34dc2d052514e08c'
p848
aS'6b21c299b91646fc3bc5608624a9a00d21f1835aeff61ca540123c53d4490b3b'
p849
aS'7e2c9c1b5081907e52f0c3153efb86f0efe1ddf3e27fbfabea65a3701d8c5dc4'
p850
aS'ac4db43b198690ff95e55b86adfb9e5817789d045600e8e73eaf993c2b03d038'
p851
aS'1cf4abcc6988f4a9db4caf0ddaf202dfc128fa95f8afcab37f7449c6f28296d0'
p852
aS'3a493c09d422f9c47845a901fb1574eea69323ca7a3be897e63af544ba946d26'
p853
aS'fd82070eacfe409235e943671c0a406659aacde1751d7ebbf19b2f73c6dc849d'
p854
aS'cc446d0e22607c61d194516fde81beb5dc17005f189ddc496f20a4d9aefd7098'
p855
aS'fed2e4ad55a9bd7b17830a630530ffada06987159d1331baa81c26e5e056d3b5'
p856
aS'91caf44817c6751db5e01f4078ce87e2e4b9a92a59da3329b153738c8dab9e26'
p857
aS'b89a1413ee698e1af853ffdb3acf31ee5c45b1ea749854b43c8612efcc1cae54'
p858
aS'c89d99d432a70de6322ff5183d08a0f78b0e3d49cc9f97ef46d1c043aba9e094'
p859
aS'03d0a67f5d03e4af397a7c5d8eecaf479d88a020ee0b163cb68659ff02713479'
p860
aS'6a2914cd2893880905705acee20bc2dcc0cdee5d3f24624424160fdf8c5edbc1'
p861
aS'92b12c0ecc215a1a49959e6dc3c6a0f5df4e8178314898f459379a2139154bad'
p862
aS'9cc18120be3f35a1d8b7e5e702814898d9cbf81cc373c69c590c09f5d670a8fa'
p863
aS'3f287621888089d5a80b98446395c8996d3e19685a55bcf97c86cc4707f7c584'
p864
aS'd7b13d71664393a47f17a674aa0e151a5e8b720919e5d1b6e3ccce1d4b4579c6'
p865
aS'cd4bb1f1ed0230d3f2bc31794e84ff65583c3a4017e0ed6db195a544eb12c8bb'
p866
aS'848e51a2a40035796e959254d602289d7c6c0a5903604c0a31c1419b3b6c9a7b'
p867
aS'64da84f5b2b3099b1b37339764e82c02df48f48a271b41934be3da5261ad2f4b'
p868
aS'37de44989e7e74b0d50e7e77d4c736f5d680c050f509f5e2817fc893be156883'
p869
aS'b325687a56411349565e29978827e755531add5c90064e5f2fcbff034cb5a1f6'
p870
aS'fdc800f61e6b632c20eb96f6f3541f7cf80bb127164158703c64c864d834c834'
p871
aS'd27a0108c58d6ec618be8c784a22523031df2b5a06390c87fc0394ad0ce38e0d'
p872
aS'4f8508d111aa7e10fda63a986f794a96046e3096d99943f9494fc62654b0cdde'
p873
aS'1ad5648bbb75055eb3b129be9598f3ebc63233c2bd6d4ddf23a4fcf8e4c99dda'
p874
aS'3dc59468c45e867ff4c723d131af97ea3e1efe545fbfbd556dba2bb6a1b5c6ae'
p875
aS'14a620e433c952f4a8ab81be64fc9768001eaf18d3ce939addd73fb02078d28e'
p876
aS'92712ce59d3e5035b00f972afcf8f165c3a701d586ba985fb03d6efa527b3ee8'
p877
aS'8320eda98060cd3a3f59fe77d603cbfecfb8c029f78f5c9135c7c71105f5e442'
p878
aS'921c99ca38822b366b44924468f438c0c992e6a1d07ab54b6d210ce8f1aef775'
p879
aS'4adbd11164b54b88e9e217a291caac29c370f8f5301ec86b5718d4679a14b4c6'
p880
aS'230221fe2603429e8cf3a97f9aefc217e25944fe498f929586dc90ad23d99732'
p881
aS'4039802ee49fff0518a7a95327733d3e64d6d35bc9737ea3dba57b947ff21efb'
p882
aS'86210630d56cbdc89f1d1a763d638c447ff912779d544f707ac8afde53413ab1'
p883
aS'2c74f1f0ed8413c21fd8069b2c885aff36fb0d768fb64c6dbf93298d515fae45'
p884
aS'9fe73fb101e644ba10c29e3d19308e3b90ce8c95a4fe39a57748831a0c7b24d1'
p885
aS'26cd71b9562f5a294ce223fdb9b7d9f11c55168d5485bd63ae6d801150b75834'
p886
aS'50b820d9f14add2a3741d4ff82be297b21a79230627a540581a86a10b234acfe'
p887
aS'9bb1d3cf305b68217e1eca96b966a84bb72321fc7c64cdb774e12d1b0e0920ac'
p888
aS'b3c25f6244b104731ecd6cc55f010640c73129995155f7956f05e2abc422bd27'
p889
aS'a00350cfe5be00611f6e1e3cf500ce7a37183dd9a94f81d80fd73a8d46d3402b'
p890
aS'971da1ea5d3cfd7ba845a35aa9a4f746238257655c8c042d113d50b333749c2c'
p891
aS'8274dfe0b26348c549a069e48723a4ab5099c75318b58322e092bca358085725'
p892
aS'441310ee46bf9b3849328efcedef7c7d18423636613186c5256991d52342a162'
p893
aS'86d5282dc652671a01b3d70d40c8e6b203711df3c33624f9a5f7a5bcd06dc11f'
p894
aS'485b8d1ee2e9b9ff3c0f3be98d5f03e2a559b7d021a871092740b8bffe2b8dc0'
p895
aS'd004ba522a2e9cfc8ae74ca78a31d754aa49472b6292c9e9279181e5cafb3f26'
p896
aS'f3f6d57ec74c058ad72ce1e0e449a7cc4a260488287248dee2d9180efb25edea'
p897
aS'3887b271db95d223f3dbf455b4f53765bdd329f55ced2bc2df6f5436b4598403'
p898
aS'e63eea34318423096ac0a10503d0c25cf13b788222e4f26501cd4b0ad37fa31d'
p899
aS'1609467925bc4b32f79b09a8c16ad06b146902c667c793daa684973ffd2e0255'
p900
aS'2d0caa3d6eaf931881f4052454975bb27f417e07640bd233ca9de95cfec898df'
p901
aS'eb2b86a6df20a6871c5cfdbad90cfc5ebaa2547ced6ccf046b91e3e808e092f5'
p902
aS'ac4adfc218e1604c9b485362a9b44539c0d479f728816bef86d46807760ba93c'
p903
aS'93fabe6557fa206353ef99c9524e6fee7e6908521b49fa50c0491e692e133ca4'
p904
aS'985d8c44132c9e3654baac93bf5bc5d6308a35036f0a87c0170c39f74284f1f8'
p905
aS'b5c84feaaa530b4f7f353e864215d2cd22a340d67beb34d3b65a49151afa925d'
p906
aS'c4567f564e34ffc1dff6fc98e5d7aa02459fcfa2575e7e72a6999e3acb0fbacf'
p907
aS'5401ecf33fc7a4edcf87aea5a683d0e2620ef6ca23284412203a2d84145b5161'
p908
aS'3390295c170189e2346c0d104742d5f9aaa42c780f6e5c1b3119fe44afec3d80'
p909
aS'c240cd9d50ac38296a25bf8b31cdd0abac69a2018d8cce301e9f858bf651f7ba'
p910
aS'7cfb867b9032e4f53fbebca80b93ea3173a0544d6dca8663454e139cb65988bf'
p911
aS'3a3e07a6e973b64d41335f547b49a420d9f18802f3d96a2e1689d3cd5ffeb9b9'
p912
aS'053e38c1a5db5aaad5adf390e9d04485f860133bdd397f8bc5c468ba8011ac21'
p913
aS'c097e052cd4aa48b96a9f6820ead7066202ac049fcc5cf2c84397fa304e6a357'
p914
aS'5f53f5fb67ef04da84a0c8df2e743f6ec7094e364ee3620c6fae9a924e9ea9e0'
p915
aS'3046ba6a474850936ea56edc19849c32fe8aeb3a6228bf0c48be652a526d8f03'
p916
aS'ad5a078c43b1f5ed17d374c153f610466421644caced54bb0ba066c27dcc852a'
p917
aS'1f03e9fc50568bbb76a083a79e9fd6f73515dba05a8e6c861652108521d3ef08'
p918
aS'c11c92a559624328d670c0707cda2499a22efb29c2fb16f1c4bfcdb4417915ff'
p919
aS'3218cf1cb664c58339c3c1d97e8701d879ad5dd7887869ace6c33360ca61dc6d'
p920
aS'646e548ef2605944cde53c487461f766ec2fde18d7fad8d8227067d0b41855e8'
p921
aS'85da7569d292c443eded1afad6ca40c20bf9e40739d276870ce2648a79184b55'
p922
aS'ddf150ad16cea9f0c8ae4bbe0eb190ab52407224863d45fa4ab28390fb2d8138'
p923
aS'f523c99d9de10d284aee2aa4315cc5b730b52fdb89d3d235486dacf6156244f6'
p924
aS'970555d71f437533b5c9f3eae55c60e9ed9e433020d897cc8efd8fb7366a2c42'
p925
aS'f8c160b92873597bda6ea40ef28c4537da241fdd13afcfca9b2ddfe06bf6c749'
p926
aS'ef24c003327e157d96ec625065d12073de336be2f8ff19b156b6ceb18d7c62e1'
p927
aS'1ce3c2cda49e2d6ae3f567b1261573ffe94a9df0ce8e620297d7eb901f31901c'
p928
aS'7f66ead5a62172e1f7afc028af19140229e9fc6ddd832f8b57a549f9f9d1a9c7'
p929
aS'3b5cccdc7f3bd7431951fa147340052e0d7b8851d1eb7dece947afcd6e6a94cd'
p930
aS'0e12b783188ba077df0a24f8f2418fc22641811064d64c69a84557d154e9a326'
p931
aS'ad0b61af16563fa5767dc28d0688eb9f53ea17d7e7d021b95fa751f022832be2'
p932
aS'fccb2a367118b434a76d536466c3eac71b46f35af971ad5d60f669319a56337c'
p933
aS'76b58b546e1b5e249b0e1e40dd79fc98c9cee127ce0423b9c49399a9e9544906'
p934
aS'4e418d899ebbb0d13e3b51b03baec8eaffc86911b9fc3ce1b38e6bb1afc0919a'
p935
aS'bb8935b232a6b7ddf84649c2dd3220f82ba8445d03bd1db95c1a433732a4cecf'
p936
aS'47e18b079bdd9110258162aae265702b64e74bcd36c55d59e14acfbcb34c3211'
p937
aS'3c39c203a7fc83bbe15d8c938dff6009a631d42a0bcaf8b2766bc355338029a6'
p938
aS'069df938c64ba2051a4ef8850af9b30ef6846399acbdd285bb8508069a987b42'
p939
aS'80740395d5ab5c5e6e5c36b8a7ac34a686f4b6f92a6f44024fb5d08e7f91b761'
p940
aS'6dc491329665030647f158f4aa1e2dd15394c393e5138080cbab18abf283280c'
p941
aS'9cea92ca852df585fbc271620b24b0ab39764b3b48f5f9710e4d1fafd88032c0'
p942
aS'3da9873f0c841f59fd36d31732805c7ee39150291f4f35f1c9ab56eaa7471b64'
p943
aS'c37bc5bd5c79edc5dc805db982fca83b5eed72fb5733af37653203fcfb636a61'
p944
aS'3ded7dcb0572350021d2038a155c69dc595ce865f48597929214e582ac95e9cb'
p945
aS'15106da804a4d20bc4f9aebf69d8345d30e8565946c95a4e9f1a94a3cfe7b2ac'
p946
aS'16667ed46b95d7231972fe5bcdc936d9fdf77815ea723e7d7861b055892e61c3'
p947
aS'7cb245c45a273e56f225c288c0cae2add0551159d6ebf07f1ac096a43f1090d9'
p948
aS'64e0d23b762dd62a220ba5eb8f61c17c82b25dc2a89e460a22945d0e19f1a014'
p949
aS'64c954e52a50778e2729844caa0f6ea2bf7a9cd0a4fe2683e4f5840ade68ea5d'
p950
aS'12fefa85ab215632ba8d90f9fd9ed8daad0f1782197ea6fb41f4523fc26dc2c5'
p951
aS'25b55bca63c4b4bbacb6205b0e10fffc3da995bad3fdb437199017607f83be17'
p952
aS'efba93629694529256ac00b89ceb2265e35dd5d3459e01d1fa93daa6a2ca4d69'
p953
aS'e720f0a5b274e05e0fbd29a38211ae53cd93e2e6768629da4e3342cbc9cbda52'
p954
aS'599892782312019d49349ef7736a67f2323240d4df2a3f84b216120b997bf57e'
p955
aS'418a959465aa5c5bd7d5bdaf8684fc47b872bb5f0e6c813559abdc776c435314'
p956
aS'e4db79b30d24c9d186caca7d6e5501c9715acc0e3cf85bdee4927094f7b5cf1c'
p957
aS'df47d0efc436afda12e1251dc5dce607e66cf1b4eddbeaedc91a232c7f627090'
p958
aS'da739ee739da20ff88b89444345dce52f64f0bf526c9af6b0803ef79447fcf24'
p959
aS'7d7309896fd1040459b52ea6e32f63bab5dfe2dade5de50f75d78d4e12bc4198'
p960
aS'ff36766a9866804cdd1cf024882bbaae26363a26a7b4a0a4cc17c10e19fea2a5'
p961
aS'd5aa6624037e3e4e2e78d086b5f1b9541e9552c0afc2b73384aa0db672d3132b'
p962
aS'd5aafd221ca3e0102595c51f4746e82686cebb276e54c390ac67c274688b869a'
p963
aS'904ebd41dcc37836a505d98302ae4635e61633caabecaa06a78ba6ce5dab3bfe'
p964
aS'e47877409bd02e42c0099b3e614fc9b648eec0df43f9fdc8558c02f890e2f453'
p965
aS'efea85be7dc2e05a9d78d63d0d4d79f9d3128c0987ca9e3a3901377a54ffcbe9'
p966
aS'64e0ee2b796bc2aafcca48963a6cc1e990ec038dc462a80f8cf5a0106f8322eb'
p967
aS'6da02feae1014b460e033ad9849633a51f3d7da92198e225d03a6114ad01a47b'
p968
aS'9a5e9ae20b27fa854c0b550ed7f6635a1c5773792fd346f55f34491ade357116'
p969
aS'41bbd4e68df66d93de0fc112117b004f7cc88ed8108605d8c858275f7a71f693'
p970
aS'4a10f0499fbe604d1459980aec56c60184df894bf03be7dba1b3391254006dfd'
p971
aS'eb5f31ce6fdf5676f0c1232ca472a87889fed092c6e77e238991ab09f6966104'
p972
aS'10d9d934c258d72aca71211d2d9a792cc14fed74246eb24d3bf13a595d369fd8'
p973
aS'e8a094b2309e4934ba7d95b7e018efb75c36c296590f743817cfafb52f9e3651'
p974
aS'cdc6941f110682bf6f2bb13fd18b5c0374aed8accb70ee7ea0a2d902fc0d5a49'
p975
aS'5ef54848c4e9269f202a79e1a98a828a025c6b33661fa91a8edc303ec1daf732'
p976
aS'd3069257c34773fe200ceea5a8661766cb42d0f9b333f727c5611d13aab43a5a'
p977
aS'b3454e00e1b0639d7ca64dedb24e33addec37a35a20e5ac7768977d518aaeb4b'
p978
aS'007191acb9315db08e142c105685602eff9663c034e1c6f03e86ae0ea6560ccd'
p979
aS'6fd41388364a612c75aa2b2039ff73ed38e01153eef2e228455fea8272e9a82d'
p980
aS'43e83c6ac3495b4c855e24839edce79f7e9daddf24f1f4999e3a91110b313631'
p981
aS'044d3a6e9b8d571265fe5aef68ac36bb30514f0e1ec709f5b2eb1a083548e1dc'
p982
aS'54b25fd82e4e60cf01b00ec87dddb535d11531426cce3b7192d5d915ee9779c8'
p983
aS'dfb75a45588af0364f81c20739f19141566fa8c80cecc006dc334adad80be47e'
p984
aS'e2f109b2d0dcd3738e137b05c8477db0e87f7a1fdccf592fbb34dbde9818ea2c'
p985
aS'7826331681133ba66542a5d79f439622447879a1c8ae093950c3e952b5d9ec6f'
p986
aS'296d265bd3cfe0e4b9c1c11717b7c06ba6774e5edb50b60d43bee00d06658385'
p987
aS'2e203d8e4de703a77c24d1a7f980cd3ea6f8c1472ae99a3be2469a98b2a3f6ae'
p988
aS'ad44ea1709f3b352a95238cb1a0b42fdd4ec49e8cb868102720dd2a8316124a8'
p989
aS'46af00d3a43bdc989168ded1865bc52aa23271227fdfc084ce76f8159a973e30'
p990
aS'e10d340d68f07286a845f117cdcda0516e89e813d87182f3f44f55965299aa2f'
p991
aS'375b32a40c55abe26c9d0ea7d37a0b239bb417b770fd95529f0e9f4ad520da9e'
p992
aS'0b508248a211a79da3ff9db7ad1c6551e480340ccdef1e01e05ee58afa481b33'
p993
aS'f650d54e475bd97cffb67938d10e4b9abd4301e71ccd880cad66722ac3dbddd3'
p994
aS'51354f6661af1dbb34a8fa57bd5cb43c6d8114da411fea8c848bd798768159af'
p995
aS'e4e3f65a1f25f054d06f217959763c955acf1efec21b7501ee18442203843621'
p996
aS'09d1b584176e8dc167ed4fa8821c33b689463de1355968b766ff48234d7060b4'
p997
aS'3d53eb39f82e3bfc681ea728c6449ad8aeca12552eb918479cb9cf857c0049c7'
p998
aS'1ceadffb1c7b65ea8ceb4c697a2e676a2cb4dfd3951250d6566a0dbfe73b8324'
p999
aS'1e5e62228036e43da73f588537787b084c7eabf3696900c880f48d23fad549a6'
p1000
aS'50bcef1ba7d5fe9998d270dfd3766cc75d49cecc6d42286393893627ea426071'
p1001
aS'ff5d623d3c40f85ae048f516c8c14eda5ae9f8e6c3ab7d4fc68f28a0373d18cc'
p1002
aS'1f1a91965c660fbbb96dd0d07031c93e9647345c98513c2943c127d579235889'
p1003
aS'4c2bd8a2cf708d90612102a92671cf5658ab9e112bca493cdd3bd754d7f07119'
p1004
aS'fa6b42300aa475d6730b38c02ed38b63d457038f97e2a4d6752b62fd20d39ce9'
p1005
aS'3dcb4ead5f3cd81973ffa4e37b7c6c4106e8a12af2d94025da062365263b393a'
p1006
aS'e0cddc3c75ac0db0553f30b50abfbb82507b1caa57aa1ebbbaa1883ac8797009'
p1007
aS'89a1f30419a74f08c5e5efc5958121c179f8504f7b9d8c2612b2a61efe455eb6'
p1008
aS'bc1ec5610bee85ea2be5ad443cc12f48fb2146ce780ce48ffb019d8a6a6982de'
p1009
aS'3f29f6630bd8c4e387ffcf143be04d18f9d1bc8021bed5ab4dac2a73070d5b58'
p1010
aS'30bc9aba1b69f5991a80d32f3da4972fbdd49913c2056806f9264decfef8f35b'
p1011
aS'db746a51602abbbebf6e6c8ff547e8e500d3fed151060867e82cc2de969d8907'
p1012
aS'ea263328e78b65ce78e4f9aeddb65180fb5a4da0224f1bf9512215c8b2020a06'
p1013
aS'4f077984308b6d841b4a6417abc910842c003bedd71249e5c33dcbea0bbe6f4b'
p1014
aS'edd03ec3fea959314bd99d386ad7320ad0eff8a499653778e2dd2ce3b45930e9'
p1015
aS'1bbc4e6239ee58bc3815c283cb577315a1346b702be0771550e124bf154fcec9'
p1016
aS'a1e9ec57ed53ea4d47e3bfd96a7f7be142388324e4ec8cae891d76dbb6a09c47'
p1017
aS'68514004751f811e3498fb2dc9a76754f78a1d06112faf5278916a22ec307a52'
p1018
aS'599beb6922fe054fa73ceb8ca59e27084f2c0da954f29fd70f80e55c3dfd7ba7'
p1019
aS'f3ad4697e13589e718426f5b09515b7c704cd0c6b35986c13a6196998077e802'
p1020
aS'b3a630a0fbfff38a9c27cded347a894c0c9d1b63d81e571b4b7b2613f2521c50'
p1021
aS'765a55cb5df140ee18189db5b3cdc89779b55077089be552f96de523d6b734da'
p1022
aS'76ebdb66953ba67d765e8aea0f6ebbe1c8074896258bfff4b473f1b134dc283f'
p1023
aS'a0acc1727828fb02bce1c9a3730d24221d02af1233fffe95ddb3c8e5917b38ac'
p1024
aS'caad9b4aa7e9439fa90cb61707a2d09b8c6ca2e37b82bf3378d9cbaa1ce0bf8e'
p1025
aS'48d7e83cf92f3c3c3edd4ce5a3ceb8c63adbaea0388cb1edeeafa61a8fd3d59b'
p1026
aS'b5f7d649a3fe2466a493141dba475ff7a120b9a8c9d7041d61727267f077bae7'
p1027
aS'd40da102e8cc68d24b5cd02946b65163d1f1d3ca99380a24c7023b535be9fabc'
p1028
aS'b37e32353c4b3ac2a6a89104ed491e3cb8ee674e7fb9e24773a7ed9b96b86772'
p1029
aS'444d3b1f3476249dc02e9edee46787e1dcdb5d7112b04bb55f83f7ef694485d3'
p1030
aS'165fc06f9adb3d1b882484f29a3e938a1c0fb2b23b7d35de1453f7099eb6dc4a'
p1031
aS'e2b2e94c4a2ad68e8c7e812cdcb13e16c4b5f63ade0689c6bc89759ca90111aa'
p1032
aS'75c6e81cb42d740e7648bf9400bdfcdade27e7e6c392e5ce370bf3b87100be5a'
p1033
aS'a6dfe69d5665562b30448eb936048da804a312a10328391a46d2469f901f69a4'
p1034
aS'ee7822207d3171e64b70cbc8c8cb56d96b8d2c01326bb24541bbcf253d171503'
p1035
aS'483273c9dd95a7e88c16aafe478b30b4f3c126c15331d9290fb22a65543457e5'
p1036
aS'5098371a3b6a728763baec1701f8bb6b85d37e6a9516974c0135401b82a501c3'
p1037
aS'ef4a6d143d356a61e77ae631175aa7ab99b4df30421fca74c1174d424373ee64'
p1038
aS'39661a32224bc884a8a592cf06dc3ac77ac25330c8d398d55ac6003fda096f40'
p1039
aS'6c1984ad97c593548e90be615685eb1d7ad3db9487d019c45f2d753879c41cf3'
p1040
aS'b23600b14440f0be7847f4bbfd031db2af484cd9bf08b13e1b8d7390e408d95d'
p1041
aS'6321d799ceca7a03b7fee1ae4694e0f365bf329c1c05b907efec5746589c15f3'
p1042
aS'acefd39de989a4e04729545be5396ce9afc9ebbe7cb0b788c3f59fe0f3ca2fe8'
p1043
aS'c4f2ed1f2708d126dd0b70e3c681eee2f077bc8598ab7dd02f862b74c43cb058'
p1044
aS'79151d04174169a73625e9d515f6981dfd85a7fceadeb8d86b31865728bf3e9f'
p1045
aS'a97a1f5e102863ebc175701f956971ef4538104539166e108db28265e3b434a2'
p1046
aS'f82ccfa3da7c3d99fd8b39fb448ee61e059e93b95b3df40d83d2c0d13b499e5d'
p1047
aS'24771c07d467a16139b9e2dfd5362bfce15834eb8092f62553a4c08c081bb7f6'
p1048
aS'8acf69672864eb4eee7ed4a5522afd73c6114adff16102c5b4b209c2c73a4681'
p1049
aS'236bc3b21fa5d81ee9530c77df8100ab8340e6fad6e5cdeb5cc1cbf67b51446e'
p1050
aS'45ec10990904444e62431cd092d63a5ffec53cb08cacdd73b451c314c3dde11c'
p1051
aS'58e4e911d4b8687f97538f2dd3f67c9cd8db779b260d7694a3450cff33dc22cf'
p1052
aS'09c7a98c7fb17fb4fd86a91af4ad6be6f9330b15ee6af72ee23f58a2230c59f8'
p1053
aS'469bdf0300351eaec071b55878a4157be70f3a449d04fe54c8881f38911d3164'
p1054
aS'5e39de325556e3e8db654575005d44217592022faec3858ea6e587866b845f0d'
p1055
aS'c55478495438fcae661a127b2653fc4af496331d8c37254aed9c362d21cfb6d1'
p1056
aS'ebfc4067ee42b8b34062611c52568f919a025056fc49e568998bceb9e7cdacf5'
p1057
aS'24841c35a407e781149f4671a4239f3b7af234f89950871996964a33862ab4f3'
p1058
aS'6876d1dfea6bcb62438096f77a8041b42c7af515b3a231fa6c95ef4e2f8244a0'
p1059
aS'131aa2101fb6449949b3d4272467e0c3f2a0373eddc5ac9d29be29e3163c5803'
p1060
aS'8cd45eb6e4b519434dc6a9ff94dde9ef59b5831174db40c49b1117700e88334c'
p1061
aS'4941ff9fe7ba8fce6f6ecb7b354f71a3c2b4de60ec858fab822c15b4333cefb1'
p1062
aS'feb0412d46c522677b7a471ef7d930a192515af80e622881063e8bc32b9ff129'
p1063
aS'9c715b7368557613911e6e813d8a4e93c43e307b086bbfa0be4905a7910155d4'
p1064
aS'0454aa96dd5b867e6e9e45e3d95afc18117b8266ec6fa324402d00f80e45b25d'
p1065
aS'54690f5a0b4997534587e4f0bb018dd82311e4f59f701311268e3be161b9d264'
p1066
aS'd1c83c98d80823c2b67a4ff42a39c750dd85f102e1f7565f16f306e5682c9437'
p1067
aS'4496f89bc49a5ae2f9a7341bcb203408d3c82d0c2ad13fd2e0800c8821800704'
p1068
aS'0d24dde05a12ed82e2736e5827275e8590f06fca4e5093c18a245f28662103c5'
p1069
aS'118e470e1c8d97e43dc97c7b358f26dd3de04e72f65aa65db8aa31f2b5b301be'
p1070
aS'69f017ec075311323a8d3b3d3d2d4bf5b0572342941703601a3b84ce4afc0bc1'
p1071
aS'a9d23fbe88d38d3f4e8d73a3ea1f5a670eac314d8e06ef49d7a2a74c6845d1b4'
p1072
aS'13471dc334aa0c438b84fcc4d03b2769fd6364de83b047b75193f51a6bbd1bd6'
p1073
aS'f6e83dc31490d142776f751240778dc5a570025e22e4fd29aa328d6a8d69cc0e'
p1074
aS'f320a7188330b579328d0c8006a1f60e91f68c0953fd4e3a195586413acb1007'
p1075
aS'ca659ab050c169e3735416f139c8639dc2a5871e27053c146a50698369eeeed7'
p1076
aS'3be91a17257ed761f25f017a363bc3f641af9f295244f8160919b361a43b7dae'
p1077
aS'0f533f2891dce7287ad1d7d3249371e1f94886cd2fb4f852ec9690c8d423c73e'
p1078
aS'256a3c25449921eb36e624b5b3ebe82c8791b6712223ca5acc778fc8632cdb8b'
p1079
aS'319c678d95ac8b4e995e2a20bb94dd06b4aa556731fd1a43754d7ae933fb018e'
p1080
aS'ade2da4c8379e59ff7d25a7a7a35ac128b0d4727515ba91bff50ccb8bfee457b'
p1081
aS'746e35a4e0b9c3bc6eb0fe69921c6e60a10d68a19ff16942d99de2bf026cf1c8'
p1082
aS'b461f28ae941b02f382cd23df4eb2c5bd24e58b77ee14e65f0e22c3fc708d5fa'
p1083
aS'e15f97461de269955904c25e208c341686954a58a963fc7b4671c67a3988b829'
p1084
aS'f912f841a71c106c50d9ee32ac263b5dc32af8cdf65f35ac0dc46f45abd64782'
p1085
aS'b34f83fa58d6ebcb55dfa3248747019d90325ba19e7003c5aa42d2f476d5aca7'
p1086
aS'208871c5b1ac1f00a883639585b463697887ae32d62591b46db5730920c0a095'
p1087
aS'35c8dd3976d9ceeece50ecef59d3ddca339312ccf2db8ea213574698a64244d6'
p1088
aS'fb0e3a5e8c06fb776502ee5ce2ef001d5b26b51694151c2985908d1e8e4b87ee'
p1089
aS'282ebf12478e26b9597d3aea869bb59e9e60cefca6d16f48fec2914b11d08c68'
p1090
aS'9e97e1cdce16b793628bcc4338f84f61b4e4863edde52b5a7e009240b9be7661'
p1091
aS'b9f783935dca22a44c9c0bddc742c71023da05b2f1c5070690b80cd11c72f264'
p1092
aS'cf5c234bf9531fe58d265918944f6819936c8efef503425d14df72504858263c'
p1093
aS'a914a5036d2e621e64135109a3b4d3ee177e1d44b5f843c4c141ccb4f224a0db'
p1094
aS'17abd9cc2d029e28c4ec84ba4021cb1991fbcb2f241524b7ec2a0a462332f9fa'
p1095
aS'38eb19549f52941c377a6b91133f237046bbb8f03a036f93b6d169ea9ce0b9be'
p1096
aS'b9f3c23cdaec5ab95a0e75f9ed263b79d94d5173559bae297e8654201be35b2a'
p1097
aS'1ec6d1210d3f71caadd7f58203b6b63fb941de665e956e6f1b33b2a95068e398'
p1098
aS'043bcccbbe7c6535fcd6c72b6b090ab86968d2e509af9ab3054ba9dd63baa9f5'
p1099
aS'796e7ece2d9f491e42a2212f078bba6e2706938e29e8adbade25204c41687df3'
p1100
aS'0d94f40d88874811cf5492c8103739f96190ebd3e0d9a209f3b0bfd786e6e13c'
p1101
aS'91613e53a4ffffccfea2b48404a94bffaa540799e7c3dfb28d2a91da396c4393'
p1102
aS'acd1137fbc92f2edd3ee0b79015cf8312f260fc43ae0d38125608b87198da551'
p1103
aS'365eae269bbebe52f9759fa8047356a92b383a7ae872d8f16a56c6a78bca5f81'
p1104
aS'669398ad16bcca7499505787d41c7f4ab65d9480b2276f2a1f0fbbf44e0b05bc'
p1105
aS'8f86df7f218ca5bdb021d86d6e5f3d900d6c1727a4e3fc36088b80f527de2aca'
p1106
aS'9f7120820aad4cdfd26f081c350d66a6a2be4a782789fc7f1f8a6241800a627b'
p1107
aS'31a208990efbd922707562a5ad124087c9b684c2221d6c04c254435700bc7ec1'
p1108
aS'aad2ea2ed2a9babc1407f5dcdea89b65e970b883bc58dc0c96e1ead7af9a5bce'
p1109
aS'b279fddc535777f827cfb40a29f8eda23790de131e7ffa1cd87c4f4e69b54a39'
p1110
aS'88d8d0fad3eb7277938ca7004ee74cc2a666bb26fa3bce3a66fb614669505e4d'
p1111
aS'1d3c0c61132a41bf79cc173df0081831be5ecf77a438abff01a207cff235b1f1'
p1112
aS'8e1fa2240141069e25b7f226c877b03b74abe0c75bd84529493183173fff1a14'
p1113
aS'cede78c115492d0578306cab47b13e332869a32b37a5864d10c98db7e69fa406'
p1114
aS'8e3b0a7adf43f34b6d0d4f0b78b27fe71070569c36460e73542e22e420628c6c'
p1115
aS'046455074c6afe71f02425ce4d154b168ff243886c91163cd0f43c8deda3914f'
p1116
aS'b12a6feaf7b3fbb2937c0d37716e1b90552974b4b672e9869d0b17ab039f88bf'
p1117
aS'f0c60f64d8b0707a3e15e01b98e4ffa75b8ef51e3907b46d20abfa0279a9115e'
p1118
aS'b5266aceb5c36230a1830aaa2570f79b0266f00f70093d26f466f9d024470845'
p1119
aS'358bb408af07f795d119e76064ca5571521764d21f8400129bac2a7c777fd260'
p1120
aS'6ce9853ad3dbcf3af9abe722766efd069f922588bca583261edfcb7b7af8f367'
p1121
aS'047b16f31394a72e81a24b1db2f8e2bd9d94ee98d5e2f1a79ba13d48a5d42098'
p1122
aS'ad584352c49ffb803a12a8687162130e724f2ec39872c8a303e8aea917729109'
p1123
aS'842623173ada920e91afee7f9cb502c049c8d8e653e7b6313f9719854e1d7ceb'
p1124
aS'f349d2ddab5ea744ebbcdb43ee39e590df08843f8bd1235833543254431ff2ce'
p1125
aS'7630ee42458bc27d7639873d9345db37e48f649c20d18948ac92bad1e932e983'
p1126
aS'c64a2c382c3888be54a7ad6b53221944a92b06fc8ce09e6c644ffb92943473aa'
p1127
aS'187c720bb0083609cbd002a6b8bfe2dfce9fd9b20f16c3662dabde5f5215db22'
p1128
aS'85eb8a9ae571444d4123d0db2d655ea3d168b4366d4433e7541973a2e2b91479'
p1129
aS'9dc79981d06f0e8dc98a4b97da86321dbe74f7e1df1c3cf7962c5cd0538894e6'
p1130
aS'd19f92b52c399ac84d65c16525e963a3ee977660c20c16522e6fc20429d312e3'
p1131
aS'ae5f42949f5887956f9829b21238185cde78cf72ef938800b822252afe965d7a'
p1132
aS'43098d67ce192a05968ac9d95a9bb19855cba46b40e37f739724bcb506706cb1'
p1133
aS'27b49a56419f9a79516b1f8c4e1147162e0bd0d155631ad8017a924ac453e604'
p1134
aS'd74579a4534b12628dfa553a561b8a5153e7006197f0b053b6890d19e59ca807'
p1135
aS'7255f8b1148e468251858f2e7f1d2d15f01e7db549463efec00b843f3f13eaf7'
p1136
aS'5c29fb23807c7f91dc8d4cfd1d14742cf4f18c482d7760721e19bbf10f7c0ab3'
p1137
aS'1364d727def2ac8e11c797b4cd0bc8ea921b5e485aa9598d5aaae2cd88b664b6'
p1138
aS'f0a05e6242173464680446c87b9ba25cf7d1346012ac8f3d5c30cd40ceab2dff'
p1139
aS'6806dab807db5e896e17939d7e6a109da1341fea2879d5bf169d6adac3ab48db'
p1140
aS'1a0453bb0302cbf04b48f628c3c59436320d9b8d73bbc058b49b517b27c55e6b'
p1141
aS'4f5accd22f5333bdae7e5c16b82052ddf8de3e13614dcd28b1a02bb553ad62f7'
p1142
aS'7717a5c0bd8b51dce67c4094577ff2a2cdc1a2f77fcf6f15a0985e9479088f0c'
p1143
aS'dbf347b560485ef423de68744bd83d707e8e249bf93957516970caad5b6e1212'
p1144
aS'5cd88cf5fa3e8b028c55ed8d821b0365045d0d3982de9a757796ac59afc3f3aa'
p1145
aS'32c8bf23b3fae3a06c9b99ca7f37f20a7dd5696cdb209eaebd58e808a3527d47'
p1146
aS'69a2a3d3d83b99daa56b33945014f4032849c555d0f7d51a6f52f75b84e236c3'
p1147
aS'fc2623aac034751a87d3872b32d28d88c96ea588facd53817dcd88c2b3cf5c36'
p1148
aS'4aef114da0381a75c3f47f916e728e5b91ae9dd42fa37658a1310bb72ff2e0b8'
p1149
aS'ac7f4c5e91f7a243dc37a42212d0f55087c718cb73810d7b1e4ba05e5607e933'
p1150
aS'b293cb8795fbf19277560c1b4842b78d48d3d11c7228bf472f44241e94b471cf'
p1151
aS'c562eec678ce207bde70b7ffa21a340f8a5520f42c16400fe5230fed43d7cd37'
p1152
aS'b9709b21c6ba9cfe4f7a06a3b101dacda94481aada338fc08e0460bc123075f7'
p1153
aS'6733fe72f49ef4266cb38a70eebc520fcbc05cb0aac4a8640671e65407fbd3d5'
p1154
aS'7abbabc1f3f340e82fbe0289dac47e47c818fd52aca342714e9f7ca44bd3b850'
p1155
aS'2954fc2ed8770d3722315005dc187dbd1853e2ce276ea38fb1245fb37c957b23'
p1156
aS'29f1b0d502f547bc75e33ac52a956a1f8ff15093f7cb1034f77b87cd9a35c476'
p1157
aS'48a8b940d87087870e73959318f71fb96bb3dcac214cb4bbabc9a0e6347b0f20'
p1158
aS'c39c15763c6345b17fad9f506a0b1aa0d5ce1d4f2dd834d95004c0e88d314f5c'
p1159
aS'1e18496f31ee7d1dc5cf2763df65dcdf59f113770a21551bced963c81ad62c97'
p1160
aS'cc5861d2fca8cc539986f7b9d66017e2a310849f40608fe12897ba2dd5d11089'
p1161
aS'd50b854812b977f004fc8285b8f198bf26404120a91c59a08f15128fdd459cd8'
p1162
aS'506f6f039cf610d411c874642d801509c6ffe7549b364c9143728aecc60b6abc'
p1163
aS'd1a8f148f5dc30596870080e687b0a895166b25cac13e62931b5849a9f707fd3'
p1164
aS'6cb18a254d83d6fc77cc003c7731252db3f242118c4892446967d7542d594efd'
p1165
aS'475673ae30c44879100faf8455cd910c691758212555a7f90f3057bb75ce3cf7'
p1166
aS'3a063b4411e992f305fb4e7284bc3e7a032a44ebabba0903dd2a725fa8504eb6'
p1167
aS'3d5d72fb1a7213d88d820951f690fb2ef26ccd17ce88aeb54960a1a06582a32a'
p1168
aS'08acc27782b15ac9a75ebfc02912d6075b1e3e8598dd1d04c88030d46f3bf7f8'
p1169
aS'e0f0ff856949cc4e5d83ae888bb299e1e575868f8e98ec3a683729dcf1f868a9'
p1170
aS'38516521ca7ef9b5297704945deb704327cb74ac3a6b536691e14c385f61e47e'
p1171
aS'fa1a19dff8e99ecb38ac4a9a22d3776bfd35a2d9d4a3018f537bdcd5e8a68687'
p1172
aS'5ed528adbd6849d044ca116ab9b18f992c6ff4b82bf719dedd49dea11f3bb60b'
p1173
aS'7653945338f16d870e05e2e459b6105708f567368543b7bc47a68b90c0eb51f6'
p1174
aS'c776abda8a0496cbfccdf442c0f9b2d88e797bd8cdd8ffda43fd270ecf347dd7'
p1175
aS'9417f325afd0415859506862dff162d2b8c88685e121d73c69a298022b62b7ad'
p1176
aS'd929468c48d119512efca0950c87a46b6e3e99de4e7bbce2d75293f39a406b65'
p1177
aS'ccb519b7064e1fc0257eebeaba0aabac449e52e4dd2002f694c868b5bf9df356'
p1178
aS'1dec82886e7bdaeaa7fa0d1660535ac5d5b84922ec7a5e6e94df6ef63c5efb1a'
p1179
aS'5984f48ef4a0e3564d9fea28c4541aa222f2465d45e0befd145237b5e24cb06b'
p1180
aS'10534c0c6d31c603b2f0910bf2b41ea3597e5b2a50d93bb70ef9381e9783b13d'
p1181
aS'4d29e393df1f0a852728814ebb0a820169551dd9101f8f72b5c6f2b57568251e'
p1182
aS'8a1448d10b135e6c219540316a4198568b52312bf150d2e0668764bdcc5155d1'
p1183
aS'67a99a717f849840e1874f6835768c70462c70094e546343a3f0a3dee2a404dc'
p1184
aS'325c8e99da0ecc8b1962816aa831b5d9506e03cc928585ef931c9ee09134c587'
p1185
aS'ba094bc97b83854a7bcfec7c5236bf6ad229f54d2ca3b6dfe519c9d80c16c86a'
p1186
aS'845441418693aeba2c6fd6f1f57feef7fa7b76c97f3964d20bea04f121d4c748'
p1187
aS'99667f5976fb2fa8350367b18a01d819f35f35bd69e586704c2e18685f916ed6'
p1188
aS'dcebb47361fad3107c17e5bd6afb4f8a7d2a18d7bdff899f383c42c4d7e71eb0'
p1189
aS'cfff64bec344e7aec069287fb0173cfeaadddac7a0b703bae39630779d1a67b8'
p1190
aS'ed5e66e60e859b9975aa6945c932e7922c608a5d1ac62766af7ab3ef51e56011'
p1191
aS'fedeaf78e4e6534ddaa658d6f9b2b04a14fa6ae920e6c844e921857cc197a143'
p1192
aS'4d5994b73d7035ff10912cd095a8d847297862085d261875387aad60513daa80'
p1193
aS'29f4af226923e71e0baf5b18c390e6488889f632fa42f214c97e078634539c23'
p1194
aS'0e08990e41f5adcc03de5cb3a95380875466e5df8e7bc9a4b0ed82f161e1bec4'
p1195
aS'aec58aa43e020a1be60c2cdf62e08e2e46e7567c48999b5863221ff9bbce1f0b'
p1196
aS'a75a320915508836c884ac12785b167419aadf00c2070dfd7e8ea7292670349b'
p1197
aS'9734a6a6df62bb47205c40385ee3f310a2c117ce5f64677b72449e677403d507'
p1198
aS'761a297ddc3cedd0209c3136fed303149acb73063e8535ba1fe8d28d2b8bcc5e'
p1199
aS'ca2ceea2cc599ef7079bed86d4f161eb11ef0723bc06cfb930f3576d9be71118'
p1200
aS'fecdd1bd39e24c2664e0cd2063fb73a28a6f7e00e2359e5de75677742a074dd4'
p1201
aS'abf312fa437abc3a99a078b7a4fe08b167295547022d06b2416be50a8113cf38'
p1202
aS'4128baa71b8fd89bf424399c614068bbb9eec9e94d640d8bb136186acbddf90f'
p1203
aS'28f499ac88fefc6233b8ef2db7d1481924a3c36bc5372ab2e08d2dbafe9f2555'
p1204
aS'30f68a4fdbae85159883232050e5ed27d90870b5b995b2af2a58b14c7a737d5e'
p1205
aS'1c99d8cae87b3b8a043e6dcfb3b6a2fd0c7f8e29d8ef460468ab5b5592bfb184'
p1206
aS'6468275c83ac2bc0c42f43aa1e7c4daf3819b3cc0b9581ac73c7c54d77414d13'
p1207
aS'45ea352dcffc4ba0426476bcd0776f2569d7956b3e4861390cf699157482cb72'
p1208
aS'03b01c55ed18bf7b46b84790a9359d7939057d4c45d70dd494329760b246afad'
p1209
aS'15048390e0de1cae25c3bafbee786465acc0b026a92e32bed987b70634c24c5a'
p1210
aS'406804ac08a6f29fc2beef8f94ffbf69a1c6880e7de35b6e283e47aaf9875762'
p1211
aS'ec5a10772f61e21160e6806baa249e804791d0b21b6a1c357830a7f0fe50cc75'
p1212
aS'52cdbf2eea0bb7c507c335a7e40f571f2473d08acaeaa5a91b230f1ceb5922e7'
p1213
aS'885aa830190fb633d32d6f32209da415f4c0b74cd6d0306cc23b921ebfa16de0'
p1214
aS'885844ca6a1c3d77cfad9e921888d706a25fedb8c983b6803c06f29f71a482de'
p1215
aS'4bc186c1a749c97a6ac86d2d4531773b35b61b88caefa01a2e6430477b097c6d'
p1216
aS'e1253a847d5110a69d85f72aed425ed9b317a3d9fa2e43a2e757320ccd45575c'
p1217
aS'f97b6c02efc1509ab9bdcdf1b385e2e1bf49856c460bf19d7a6a3d20619a539c'
p1218
aS'931a581d6a39ad400fd92cffc6b1cc180d4e27fa1af5d95e88144715fe44c3e3'
p1219
aS'94f8164d65763a11ef3d5e9bb1f37c29eff7796b6e0d5142eb1f650896814747'
p1220
aS'c98ed6cae6b4f4394fac70faaac9e41ac4255a9660b4b20fdf6adb8a34572300'
p1221
aS'fb440aa40d3b0b704b13b6c996415d001871845c21d217e39fc26c6736b5a762'
p1222
aS'475e1d4038385bdfd8466099e7bb7b7671b1523b118c064c24507288156fa4db'
p1223
aS'73b782d5d35182b061328ee78415f804e6349b163a7e1a8969bd0cd6ddb98aa1'
p1224
aS'e286a49f88196218ab1ff9f9bbd5d25d508c52d2917708effeec62a3e021e923'
p1225
aS'1eb0083dd3453da17e0545ab187a2dd07363e258b7e234ddc9c7d47f93984c58'
p1226
aS'961173e33dccaa0abdd7a53d9ce3a49ac50cd58472dcac9142f3d11c0838647e'
p1227
aS'a883b6cb551c1ffdc2ffb1dd339f4cfb4aeeadb2d8b438e46453708ef29afa95'
p1228
aS'85557971015c9513e5ea8c4b4bfa8e9fb7d4b4dcee4154c0ce902ea17e613542'
p1229
aS'6b3068cf265152c6708538d58c7f3bf5f56faca21aa00028b507cc32a5c9bf2f'
p1230
aS'66576ce03bd167c3da248ce63d5edaf989cd30cc59b8585ab34c9502eb6ccc2f'
p1231
aS'5ebb952239f4503a6c3c28bca89cacedf941ad93259d6b9fe792fda3096142cb'
p1232
aS'25f1b7737c74ea68d85062d97f1c02129bfdd69a69943cf11a5593ee1f5d4442'
p1233
aS'cfe35ab8bf7bf868b61369174c7265bd127ab8fd9cda0c06cf51c2fc8b6b79bd'
p1234
aS'7ed917d90aec5b9c3008a0e6378caddd543f56497ae7baaa7645331235d26bac'
p1235
aS'ac8e5aa91b7320b01e03c54fb00cbe1274e4296a97238987dfbfebab7b91b26d'
p1236
aS'05492663f9eac98bc453b77df4328ad23dff59100cc5d545984580a16791a9c1'
p1237
aS'a7c90728cbaa05e71e765c06f8a77a7d99ae4748a30282cb0eaaf3e3d6106890'
p1238
aS'3181167ef051db63d89b16c69911870cad0b153a668cab8cd7ac89929170903f'
p1239
aS'b065a8481542b51b7658a7c6f79efc3dcf151a553df28326e9b33d935360d9cf'
p1240
aS'9f808c100a8170b2b77b0022882f20041853be0927c39e145bbe716be788efc0'
p1241
aS'52c04409cd7ca085527600a811aad3cc6a01ed2aa8d2f0eb3c1b22d7749ebcc1'
p1242
aS'9fc1543b765e267a80238a65a9657ad50543d12850bdd1a72fdbc2e1083dcaa4'
p1243
aS'5e8cacb3fc95c251e39585dd34f0fce69e940b68667a406cc9aa5564aa47edec'
p1244
aS'a69a8b410e0bba5e0cbb74e67eb136388e78ef565e59ba4aafa08fbfd7f7e962'
p1245
aS'f8f303b3a48638093adc505a51b9f4ffcc42b8ef753dfadd90745b602504b043'
p1246
aS'5464cfb7c8912c0dbc8b97ac342efd1b39561dba1cb47f69ee70114c7908565a'
p1247
aS'0e0d4565acc056204d42026cef54e05e86aa4283b8824a28b382840a08621e40'
p1248
aS'4933198bcda74c7faf80fef7361b10403fe3226f1c4beaafdc754d70521245d6'
p1249
aS'b01270f50af49a59af6282edffc164d408a24436276b164e1cdd99e0461add22'
p1250
aS'33fae9a8d8e3986b8febbe4ea22f62a77fb8ff2f0ac714ca54898f769922e93f'
p1251
aS'01df508f93b5e87002c3b164807af849c635270158f77c0e6223d4d8121658b7'
p1252
aS'69d75165f05a734007c3f7fe01b4a2bf993d70436464368d02ed9472a5bd3a78'
p1253
aS'052979f8a9ed2cb10769622f52a8c2db7bdc805975844534198783094f1ce95c'
p1254
aS'f34bec7285c8be03e89834950f41da7c2c2e041b60b4451bd5faae5be3dd7596'
p1255
aS'954057bd64523ee5f3004fac4b1b134a72ae9003fceebc52a8260770e3794dec'
p1256
aS'd31ca0554c22546e68f911e7a86e6c5601261a377242c58865893f8c91b8d68b'
p1257
aS'e9ba0f94dc309ff3568af170dc3edffb1f17fb3b5e7a1836328f48d303747700'
p1258
aS'b6998a371092b8c2d5022844e0310479f7d907057ce6ac0aa260edd3a7351978'
p1259
aS'aaeaad39252ab161758af0f0270c12d15233ab199342cf0cedc1a0461c999021'
p1260
aS'3c7cb8e2b998ffbdc1aefbe419b9c59dbc9ef9a68563bd1fde8ae35ab075b3c7'
p1261
aS'56999e0b646d5a6259ead193e77357db4e0450518689da2e1b9bfbaf1267e022'
p1262
aS'a36ed338683796900f60148f4338cbd3abe00d57c2f937892c785030d267b56c'
p1263
aS'4f922ad5bd6f36ae8a0b575b528ae909d36d32de2a0644bc34d2a0fe0702bdea'
p1264
aS'bd7a01ba4088579f518b284d97d60a057985afc3363faf223b9e05cc722eb216'
p1265
aS'5e8e969be72282d04fc425050fe8eae3e4da86708596a20ef30d630e8bce7e42'
p1266
aS'cee05ac909ea86d5f69ea32fe096d31fc8d91d7e548420806f943c274b0f040a'
p1267
aS'411f6414512afd0fe7ab669ee3f94aa4f3b44a1693c19905789ae06689449d2d'
p1268
aS'dd55697c8a95d2b0b323f323751feaf6dde401a3b904954711748f100938a01d'
p1269
aS'afd255765b23cc478c93dcaed0acf068aadd4fbe506c2afff379d2d76574464a'
p1270
aS'59fb497b517411d4a6767d516c98007267dda95486a6e707b953ae0fbd86ec2b'
p1271
aS'8fec6c930d6b1679b5784b07f4c8fa222ff0903b95b804b56dcce23c8cdbffb7'
p1272
aS'118b1d69f150fec7c1d19737ad9c9284391dda70aee8cbd33091385880236490'
p1273
aS'fc62ab87ce733cc882f89b7b70c8596f896cfca27ca1ae0dc54c2aa3626c5888'
p1274
aS'f579b8812c716d479e130d89c94fd564d6d528d837bd33664e2e08cf6ba0cee9'
p1275
aS'5da7085e858bf3d4aa0764ea9d8696ac4c23f92f3df965acb0bee9a58af16b61'
p1276
aS'a24d9d724466225d4781fe68938b699543ff20163d8e1f0c6a8c139fe8626757'
p1277
aS'8e7c5a8ee1a8c75910d08f7bf00912b555c5204ed4e81b10d35d36902d165411'
p1278
aS'ccce71cb881d1619599b782653e1560f1a11b38a57f7d2e4222e6873b881be59'
p1279
aS'c3a9645faab45d980555d7631ec39dbdcb675d59b5913fc9c5b567494649add4'
p1280
aS'02496df6b1b96d43fc60a9a39ee75c3f9a92b35312725841306b5ee92af41a21'
p1281
aS'3ffd07a78c422073e00612d1586ef43e33dbb2026411a3dda912048d272898b4'
p1282
aS'd4384e33a117b7e7f650e2f03c8f29972beeb5c7e01b7caa71bac4c0cfdae35b'
p1283
aS'562265f45307aa7e6bab1d532c7b4ef175c19f46696d36004c43b2f10cd1326c'
p1284
aS'5df86965ebe4132e687e992cf7a171b1f7b60d32cbdb02e37145cb40e346317f'
p1285
aS'44b427387943daae5dce476c9d661e17335ae31bd7c64aba4d3e26699097386a'
p1286
aS'f87661d4d3617728ce62b16dca0794440cbbe4d5833a2ffb7fc9860b289a2af3'
p1287
aS'7d69f06a52209eedfc84ee092101407ca0ce4cc53c15e4039e2c0608d6ab87bc'
p1288
aS'541f86ce632d70a8d78a63d3c24c072dfc8523307acda71be78ee816ed55e378'
p1289
aS'd5996db5061156e063c55863b5129b5674fed2810d56bf2d79e0ca3a77df75f4'
p1290
aS'd24b89625fb43af66c5e271c180d0bcd96f835f78d8381df00642aeab51f0b28'
p1291
aS'8e823b11475ba22e707e0e5118279efeacae4d5446c8bc0d8d4dd7e371a2ce3a'
p1292
aS'8c7534aeb990b0890aaea505390ddf565619c52782dd84ce68fa1e2cf2775010'
p1293
aS'940ab8d86561a4c128517a06244bd63a587afc9885e643d17f7489e1c90ef25e'
p1294
aS'a3a5b61440125e3cb428d9a81104c462c76b8674e5663138dae3643ea2202ae0'
p1295
aS'0d1131c6a380c73ec228c79506d2b1babce631dcb12aa04f344949d39995f3cf'
p1296
aS'2aa9b65bbb9e658fa4be3c556382fac32bb9602a12c2489bc49f49bd8b5f1d1e'
p1297
aS'8ae89d8be2f7db4154133c7e9e4cd62281eac284feefce6e1c11a9cd423f20b3'
p1298
aS'6a30aeb6c5839426f66c755b6ffd60e1a7774d5350c5aec7b94b7887cb703165'
p1299
aS'dd3ad4c8c17255e687be2ecc7bfac0477d2c5ddb4339847510cc4c6580328898'
p1300
aS'f7591a5918b70128f6645dedaca11ddf6c9cb8eb20a8d84c4d256fd2e8c4facd'
p1301
aS'0fe3ad71a816f585f98fa7309e6dc820d47b7559d25abe4f47333e87ec9bd830'
p1302
aS'f1da049509d2ea4e3128a5ccffb63fdd5bfcfffb28b0249c273da189c7d210eb'
p1303
aS'ada1cb3df35e74062fa3b2e05ba2dd5dbe9b70c52d2e3a9ec3ec36c66bb89937'
p1304
aS'872d87822dd7cbdd58791dda467962abe9b2e71943c6a8f5e6cd8f77d234eb72'
p1305
aS'1ea18014e79576dc7ebf58e1253666fac53ceb06b88c39628a85688ccbef8a55'
p1306
aS'0912188729e4b9df82adb940a6768e3e96112d31dfdc40f9d4f9d4e8e958bf45'
p1307
aS'c3579bb90b0615dbf932c151c440be0eff09f707ba51bf6e2870f434481b18c9'
p1308
aS'd2957f3469edc4992b7ec39f7ef6085831b9770123e1777a7ac622622cb30a2e'
p1309
aS'ecb4173b27f602b280b25d89e9cec28c274c0e2e63fbb9aea0c353d551e41d26'
p1310
aS'17d0f9ac2a21317510d33ea68d0bdf1a992f9eba4d29d612c283139a7cd519b7'
p1311
aS'4bde302226f2193d71e6a97489ee3dd79d350a9d8a07d43c14b317d82d1cc48a'
p1312
aS'2052e28640d355945370bd063741a7fb88dac78235b312cb7286cad2c6bfa68b'
p1313
aS'4abd5116e9ddb1ce87aef33056330dc3af259e9ca59946abbd062a833a92f1b8'
p1314
aS'b0ed849aef42df3feed076f15b1b2621ea289ba6a2d52e9987888c54abc66cdd'
p1315
aS'2889939401286e0879265b35cc2711a426f3e7021e1b9eda3341f3641f699fe4'
p1316
aS'1e07af905e2025aced876f0d50a08f9d282502caf65fe656851c2f57179aa2ad'
p1317
aS'1ccba0586bdbc1465d02dbeb12f2f10f870b19168b6de96f2b9f26e76dca3baf'
p1318
aS'62506524b2ce9f7475a8342907bce728bef6858a3f0ee3a1d36c2b41eea9d32c'
p1319
aS'646d00f98d6a77a172ad1ea3d29d8601bbcc3993c7ff709614b8bafafca81f27'
p1320
aS'bae5bfaa3c9b4e7ee472200f2efda7cb8382feea49a34cac9fa77415056c2141'
p1321
aS'fe2c31d0e2dae9c62ea08ce888452a9a94b2433921cf5247be5de5645f52bee4'
p1322
aS'69068563e00c01ba4fd97ae6fd3f11d4c418f16af8251bf2aebdeeb75624674d'
p1323
aS'f31a141314b17decfeb9d0dc77074e1d4d366630b0eae2eb387c9ece960d904c'
p1324
aS'4da373587416347298235e5b45ef14b5ad1a4f28b49a411b31c0ed9c1aaaa52d'
p1325
aS'f991c96aac0a2af63787c3d0f984907bf61e983e64c831af08bc49c2b2cf7a0e'
p1326
aS'19e7015d3ee33931480a29742cba867a24de92f6e6dafadb6f35b64ebd1b6b2d'
p1327
aS'e9fc50fe0674b00f77bb1a07ad955e07520159916aae28b022ed2a09f24a7f96'
p1328
aS'31096cc5816f6c33804254682fa9771770b0af01892080c0c00424e7e62a3bfd'
p1329
aS'a54dfd27deca1fb95fff07c5f4393074ae7287d7dc2901e1d875841479064a5b'
p1330
aS'c624fa06e917e286e6501f522d91f423dd623942505d7020804a3a2813a6a825'
p1331
aS'e1f383537b8db5cb0da28a16b8fa969cd30d81c1c889c555dfe00dfa5a09ac3a'
p1332
aS'25a5842e07dc0a5fa26fe2469a77a273700cc5515a2f6b604ae3515dbbc261ea'
p1333
aS'e0e10e48cbeb059d7f7ae84d636d5bec843bdbb876f8c17039d762cdd745e9a6'
p1334
aS'a0566da2383f136f9fd170ba0dfb0b36590465cd34a5fe4fb87132c5ccf0a60b'
p1335
aS'9eb0a66c76a24553045d7dd06ef984494c5820a08eeace66b9e212295ab39a5b'
p1336
aS'2804009e2eedf12d24ca34ee16b5763cfdd95d980d74a5bf7cd3001cfc58e31b'
p1337
aS'f6736222194ef649b7d2d6a65ec90acef7b2826843b024633e58c915c1236c95'
p1338
aS'b02024e49081a0dc9e107d2b115019946009a211e8549c010a672e8b5200fb4b'
p1339
aS'317cd4e6f94e97c75536ec745e965b90052edc48f62b45bb810bcbbd7e434faa'
p1340
aS'90a894fd8c3d53643ff0313d5cd944a2df52a9e6c4e55257664fc12370c8877c'
p1341
aS'f65b3a3de6b541f8183dacde122a348ebca20fc414e8cbb4378f03e159506f5f'
p1342
aS'1a995e4312b016df3127de4e3588d6e47d09b95ab138aad6652c8da17dfb4f22'
p1343
aS'296fbf297611939c7fddd3ab17b46a8d7b9ab5aa750b75682c059d59d8cf8b62'
p1344
aS'76bd7df3c036ff88f618d21d78856e167cd03c0e96abc7b6f7991ae256c4d0b1'
p1345
aS'b15efb00760f4ed477c05541218884920761658c217be7df9269e935c12581f9'
p1346
aS'a884151a59afbd160412075b75c9024d4e0b9d124591cc5ecde85c19fc5ff743'
p1347
aS'47eda88442dafd5cad5eacb4e4fe8b316d392bd47bd76130da6ef74e554d9c89'
p1348
aS'45f60ffaf0bbe5e3fe42d4e7824ab7046ea3866d4ef4fe3a1a7aedb1f033160b'
p1349
aS'ae3768eaf445ed2c42a7323e640732a63adf233806738f95d7cef9b4b111c34b'
p1350
aS'4d98c9589f40636576a3a2ac20cab30736660b6f3e162dce47f969e93d5c8360'
p1351
aS'd172f93650b50910be8ed0a37e0baca68aca75e9acd0b695079912d4cb1cf756'
p1352
aS'0ddf224dd4ca282c799943dca4a7152ee34218cb3a90f71fb935f8253b0cf7be'
p1353
aS'6cd93859ab88e6ec5992b0a3e966c49dd207dfb8939427417af46f362039c961'
p1354
aS'fd134fce43d39ef04d8dc8f492c4094ed162759dd1b3543888ff8c9105f897f9'
p1355
aS'08f26509c9bd66696cd5d2c367d5259cdbdd0c74451b771a633d233bbd129029'
p1356
aS'5e174122ac8593b13e128afb9a00d54833e68fc4b4fc5717e1041b3d407e652a'
p1357
aS'bb7c26cf56df18b07ad31aafde7df57d7b32170712601fb82813d469cd9ff974'
p1358
aS'67c2c07e173f4ef4e3363f86531ad64726691a3ccac9e3795285e84a15a40acb'
p1359
aS'b08f1ffed28e6a3dad24fee2635a44ca2abec6af5dcf129a3e67c454d884436b'
p1360
aS'f943a7ff49726af216b57d2ae7c31571b39205fd816a23b1c5d70555e33c8f2a'
p1361
aS'daaaf7ed1d251966af7bba7f6d6bfd4700e3fad239d9d8f525b91550b848b073'
p1362
aS'25e1160658b990e92d9d75fcbe3ead4f9557b2c99e58f617552c92dfdc510ad0'
p1363
aS'52deb1bf02ab27cfc68c211f4e3f510ce222bf70e0e0bf67c9364455c50cb3ee'
p1364
aS'05177e66b538e731ead4ba556255adeb5206f5642ab131ff46d1f0eb6f2199c5'
p1365
aS'9368715d5b83af136f79973da5ff8289e388ae31be72a53bf2cca8d86a626a10'
p1366
aS'21e9a60b3248d31718bb73cf6971c5ab08b968e5aa4ede077eaa4de9f5d2bf55'
p1367
aS'8f3d53644e5be3df75c32bae576c07b13371f28c22620655d361608d47c8c798'
p1368
aS'7585078de408b0e43d2b82366da7de1762c61c541faf4419711cf7f9bec93e2c'
p1369
aS'1f9ad287681340ff7691ec83f22e1063863fd209c0df672e26b101115accca70'
p1370
aS'5851c4ed494b00787b74ada32e863e05c1f631f91e35ce79948cbfc3b4b09709'
p1371
aS'f75f7b2002e0e81a2e64409c8e065e6af4578257de7ef0c636c036d7544e8ce8'
p1372
aS'9f6d98c244d38fbcdb43c6b1f0c5543bb3cdf423d3e22af0626d0063f1201e1c'
p1373
aS'3b8488f84aab877d462b1c9d7a1e8ab0d946f5679d927b06e91617b608aae4a8'
p1374
aS'738350afa43ee28d482e5ba808265d38857c8571bcc4bb306113499046ace220'
p1375
aS'43c0a763dc64e3a67ae8f71cf646b128f597af92345f893ad89e92c0c7630d75'
p1376
aS'1bdf75c99b744717d8ff2adaf3a2d33dbe1f123e073faed28d53c1e72305d615'
p1377
aS'5a84fbaca2b994ab69011c0f46163a3b7ad15678975ce20bd1f345bb564b6c24'
p1378
aS'6d356cbc11adccbdef6b6542d45850a899c3686b8cddaca97224c26df47ea3e1'
p1379
aS'2a4e8341036f9ba134ba1b848c4e89461f0884a457997b6ee51ea3151d80abb2'
p1380
aS'680722ee202a3e0862709306c947301cd09584bc0746623dc640c32f3e2a0c84'
p1381
aS'e66c9b0238ce2ba39ade7c2b520ddab409d28277b9d855b0220d1286a410e7a7'
p1382
aS'77615f050bfcc82930c6873b66e184fa2b319f9e181f642a98de09305d77fe22'
p1383
aS'707793f5beb219823caef9b08a8a9a66991f01604fed19e46f0cc28a481a4c20'
p1384
aS'783d71cbde8a2bc06230297b4e164b204548db6e7fc4bb522c06a1b2ff37f358'
p1385
aS'6b2c6f6fb1ac904f6a3eddb93e204009b7ed0d1991925b5e1dbbd68d384adb98'
p1386
aS'cfb2127232fed3fefee7f31140df1109287c57e275b59040b38b139441d87c55'
p1387
aS'76a15a0f32a28d3d7a3cd1b9b640dc53df8aa2b5ff328007323ff550034c92cd'
p1388
aS'ce1a7a37613d38d288cd3a6813e920cdaad79ca293611da693ea909e33eb1d4e'
p1389
aS'ddd49fdef1d9f3cbdecb2285d89eb43ca0d36a6bb34370b8274c22d9c36d97fd'
p1390
aS'09fae67764c380f4978d81e181af6860f0f4ae8b79622fb173ca65fc28064c6b'
p1391
aS'c530047be5d32b9b52a2339445ccfe62fd80cfcc7d550252c2efd973802f5191'
p1392
aS'a78e983feef3837308399b3740f7c2155ae0ae14342d0a7751e0b907f767be72'
p1393
aS'6e721249a639fa0cc1d759aec6498784dba35061076b14775bc33c6ef357a4f6'
p1394
aS'1470ef8f0daf082df5c2c13fb813e0539d3d90671bf8fb59bf94d7e6f2fad7de'
p1395
aS'476b6382c39ab02f96cbe4f4c68b753e587f88aced76f3ee57e8d0061c19f413'
p1396
aS'931640b44a867e99cc74ac5c4480e07630f7c1e7a46b14fc8520046c54315f61'
p1397
aS'001ed9d13465284cd29cc35a0b6327ca6ee48b83c5f1238d6280e111023e273b'
p1398
aS'9c64f17df9822a43b6809b0068852d9cc04bb94984a5412883190b70e14d0192'
p1399
aS'0800a22899184dc1a3e917afed5e4c1a016d688aec5b962f40ab8c2736e4de11'
p1400
aS'a388eaf85e9e7713003deeed3244e35c4121f2b3bd56470d172e9d6033f1a13b'
p1401
aS'5b32b73ce195ef1b15677dc1d96de38dc42f9afe67ab5c8ffef4186278f2c918'
p1402
aS'6dd4d7ac865a8e91fdf509084cce66a46ba49f5e96898ce0a9204b96932d327b'
p1403
aS'919247eccb40b8fffa8e88bf2663e16339ea6b168178f9acd991d808f2c7bb94'
p1404
aS'62b4601ddc4823a27a6fdf9373bb3d32c2b2a49fdd37aab54a429c38460a6337'
p1405
aS'764d548b878c485455eb823f095938f2a3486e19c8db9249ec145b7c0a3544cb'
p1406
aS'32b1ac9492da719071e95caae7b1b17c7a6077976ef7da4b55b66c12545b91a8'
p1407
aS'8c543485966eaa23315bda7da2e5814cd6645ba891e27b58b4a32cab8fa8d029'
p1408
aS'29e28d2531030f4f3405fd2d7b3b919888b8a3fb96293e3466bdf469cf9328fd'
p1409
aS'f56cedb3fa46a4817cfdd2c82764f16074a7e80f2501a19dc7662853c8ab468c'
p1410
aS'b129994f997a5154a423f114077b74f77c3c845c86e2e76c8a2a8e46e7d64311'
p1411
aS'7c9c6d59b0111d75ed91ccc9ee997233e61c0eccefd9d0d5913de79dd209d698'
p1412
aS'cf8a2353816202a5aade74d1871e16ed5988ade124a27e7daa9cdd36d721858f'
p1413
aS'a8cf28c0a2b010e9c2799201813c9cb6902b7513b954a8444bd41536eff11403'
p1414
aS'44bb85d60a0450a602dc7131b306cc2593e2a88ee73dcb7f48f3f05b9f015262'
p1415
aS'8fc28a375a3e27db8163b04148e74ac80b2a4ce9608ece73084da09abfdb7ac4'
p1416
aS'65e99f4e35dabd1bde97f463b1de10119606c044ee186b6446aeebac6324332b'
p1417
aS'739ca49fa80586bbd6be34eddf49c8a5d35c49c5b054bb814f6694a60eec1530'
p1418
aS'876ac2e10773a29ee717da277c5a0cb388f8e8a6c27c6cdb1b557abad4256d68'
p1419
aS'43f46c1160a1671b2196c9f51bf73d10374195f6409b800e690e314f907481a3'
p1420
aS'bcec5794c6cc3a30751f15ac4fb59e29dab677b9d5b5deb09f7d3eefc2400c71'
p1421
aS'e2faba5e60a15e1ee16c98c616597958f3b360800ae59db954d14bc63e9ef017'
p1422
aS'a2185703800ded6fdd3148062096803b182b043cfb2c4609f65f7d85b8866081'
p1423
aS'4125be172a8f23803b2e8ce6914e1193c46d4e80c869f96df38832e33dca4662'
p1424
aS'ce14a720f3d7e46b9f6106f0f2793377e0d28c9736c592f4816dd3217671a1bc'
p1425
aS'0584df73a62a97640ff4ac4543d3213f272d9b8d13a98d7df9a2ebe07c8f8b6a'
p1426
aS'25705e41e5b724ba055882ab504147dd19469585144cbe4609ca2e7ae615edc3'
p1427
aS'f9aab765444b2d76190f92b4da40a5abd7d95f98f7ff26d1bf68fdee19189205'
p1428
aS'58495f4f2e47bfcdcbe6516363b46c50798ca93649c3c6b14c35758c0c413f1f'
p1429
aS'bb382ea0199ef07a6795d2df466dbb6c0bc69938dfd7195af6f6f5f7ec4f85d2'
p1430
aS'6ace47a0b0ef89f7a7020a1fc83772e6fc46e4794dc78ff2bfe40d9a61a3340d'
p1431
aS'f558636683f596f0e74d8e4e74d6f36facb85a3ec5704cda088b7e50e3be28e3'
p1432
aS'e49ba5b76248c0a8fd4eea407647fdd69e0703357e64a48da8da1db9f5c0c3f8'
p1433
aS'902cd4b34491fc6dfc7b1270baf5ed991159ed68cab0db05154a2b9124764bc2'
p1434
aS'7aeaed94e20fa034d6c64c4374477a6eb400356f289aaf6149d0f557012f23ae'
p1435
aS'7b65e4050f171be0c254b1300c963f8b213dd2db73ea04db10f506b1774417a3'
p1436
aS'ed7ae9461295378612ef4a629ce952e33aa25bed9fb42c23eb2298dc496f6084'
p1437
aS'0e854270a1a722819aa344cfa502cc12d38cd92041ded0a2e74614cfe08250c1'
p1438
aS'29a7e3d157f7e5d7a043ae82df7a0eada52d0ce39785197d6321399c84cdb98d'
p1439
aS'50f22317f6a5fd13a283f8d7dffe39f8840a70ec9302981551d33ff18e0ee846'
p1440
aS'28db168aa8c8ffc21a3a3c9c6b36657d8dd9f25dafe3ba154435e35545f69050'
p1441
aS'33952d584a0e2660b4cf32c019eb9a01126b51919675fb252049ec436fa2f383'
p1442
aS'1d596cf17f03c6c30a6539ffa4f4678ccdb65dbe357f044807e55d02e6b8a0f6'
p1443
aS'9cb8e33baa6a9d9ec98a6e8af5162fd9410e72dc4b38e76625639b424db5d2ad'
p1444
aS'c0f747fcf38d95674e416bd46f7400da87e64c49bbe2e0f18cdc2cfa834c49fd'
p1445
aS'd2bad41738f470ac91be1a90e86a0d32263ff098729c8816e0c4e6463476b17a'
p1446
aS'52f3bb49b8160cc08c3c749f0139cff974d649eb411bbf02cefb4633683311ec'
p1447
aS'12d4e6126574f7259006a5b6c6046443f2c4288d2987098f8a8a8fdb505e3cce'
p1448
aS'7daa32c5dfad446df2209e9bf1d82b7aac7f72b502ab3cb977c840013b79cfdf'
p1449
aS'd450a719b6ba3a92b4af19b409b0bd724ad7bd93395263a1ea962c5eedd833e8'
p1450
aS'dca776e7658a941c511a6915345372cc7630e8c238492956b9452fa4b8fd4bf7'
p1451
aS'440d5110f1c328416ac479cba71486d791f6c8185404e91801949134a582eecb'
p1452
aS'fe4e346d2e6308fd4e5a245877fddfe92d095c758b6a67bfa94ab4dfa60de823'
p1453
aS'46c88a84603d245bf54b66dd1772837598ce4c31963f7be64cb47f1763973ce4'
p1454
aS'0f523cff223666aa8752d0ffdef09a51fb937949986f10851b4269a44d75060b'
p1455
aS'12fe223a10c9530ea1fb0fec4d8619e5e4d779397a463f82d611875929912bb3'
p1456
aS'd020e2f0231ccb98d9a1eac1eb6f7da5178b486e82ee132d658b7dbf101a3ef8'
p1457
aS'd22f42b10bf011c4071c86ca2a1e70988f2ba1243143481cfbe7733329061f3d'
p1458
aS'98155ff8ad3483bc360b372cdcaceb1ec2ded6980c059ca81ce7644e795550a7'
p1459
aS'584c24dbb37fca57e5f0b086afecd10d559c94016970866ad529ad550a3e46fc'
p1460
aS'73a8c1fe674df8aa62f482441d1b5367320740d54d6df71f4afcd70333f0bf2c'
p1461
aS'cda24011435d1094092a483bfafe3506f3eb96534d677497af30b728124c7f0a'
p1462
aS'521f952a8863a6dc850e44e82ac87ad1e17592fcbeb76f7254a27dd70ab148c0'
p1463
aS'566d875b4d64bb579d50e62a6ba7fe2d99d7594a3a0d0993bd2fc093d32c8146'
p1464
aS'e22d695baf72fcda86e7f3099fca8af9acacf0380e3dcf2c7d62ceba944d625e'
p1465
aS'ad3bff949848c6fc1b51f12664f7d5030e00b871616aca7c4c3b943df315545c'
p1466
aS'6dfd622f8926e04ccf26d42c404c20aeb6b1d8af9ae07b2d0053962e4e6802a9'
p1467
aS'bf1d8039bf3e142153409c61d1a466dee2d7c35603adc0339ea1896461dfaad4'
p1468
aS'b9d27f8c80e920e9a51b7ac4637abf9f27e626a092527b6e231302ac869f2635'
p1469
aS'4051f29a5e48e13946f6ce510f79fa16f44281aa644be40c86bbc725c694b04c'
p1470
aS'5044041ebc885ffd735caad51c37f7111f26bd5abd86f76586b57ce3cffb44f4'
p1471
aS'2dfe1cbaed34edcfebd01a83cebde6c50b92c403abe9d8d1754404a7b4c83f9b'
p1472
aS'bfddff22a64eec41d9428e5f7bc74585fbe21ea28e5707351ef6615b62fc60ae'
p1473
aS'7fbaef81d73480405df333aaed74b752d6b335f06223413f2f58837249270660'
p1474
aS'efaf1c2480d087e11eb97a0f05500064bdd50d0b5f20fc43dd231a344c02670c'
p1475
aS'c0a84f5cf9438c5d7ceda8e42d322c3693d0112d849c3b40c0e7892f7eedcc3e'
p1476
aS'13148959f7853754c9e4cc2f36be5d2ae5f1fdb9b5f2e5f2b7fa28acd630a95c'
p1477
aS'b169ea18f3e8345770d8bc39857a949fd74ff5c03e13bb91c19866f2c2798696'
p1478
aS'43a3fd4d2e397ff0df240a77144ca4b871e6d37983952a20d324c093d7f1665c'
p1479
aS'26c90440ca275f30d513f84beff3ee22df6295ac4aa3743362f2cf84479a92db'
p1480
aS'a4545d55c1775631d71aef56aa0f751f4a0333dc805086d46082f17eb7d7f965'
p1481
aS'79f22a12b7d6e4cf1088f682d9daaae4ad7258ca7f07f010a89fa8f1a8dee861'
p1482
aS'544c17eb22341f96eb77206d7d91fc1574c9c3c479c7be419f3baccf5e873f34'
p1483
aS'2fab818bda5617bdfb775f26ffbed50cba172909843d0003b98cb8aac2cf44d6'
p1484
aS'b212eedb229f819a870ee3268e809c591d24abc4a790e33a6a6b2d2cad29ec65'
p1485
aS'8b4446f1e556913fe05537146c9a899e9addb4677b575bcaffa38a652506f1b0'
p1486
aS'870b076c21a88818422951fc87d06ca2b9e859c1da91098a29455f835512fdf8'
p1487
aS'24c0c5b763f2e2b07a26ceb10716e8b25d94e9d25bc8ff89dbad379c68b2ad02'
p1488
aS'84bb9a735712f2a93ebc33a74f7fe1e38ae956534ff699c24ba53f6b24374aee'
p1489
aS'a3d2b457c62bace0de9f16179996a9a2e5fae23185c8f8f63dbda2f681492a9e'
p1490
aS'3c676aae9a02af1c8676176b000b2b345506af06f02a7572f5157b9990373f66'
p1491
aS'34e81f9f2184838c03eaa1d7b774a2619ec1ee06944d84fbcfed61f57bee1c2d'
p1492
aS'55a0549e4e4cd9d5f0bdad245621f31694c1bc41f3747a2bf672a2e09fd3bc28'
p1493
aS'0821c9e89a2b3cec6c7421ddb3fae62559e84f2fb43eaa347a32f6f85d8c4c5e'
p1494
aS'c4d315aa05e31a98b1f4dcdb3994a252f6bc0b5b82d233b9bb9e67ed41dfa702'
p1495
aS'46f1bec684eca8941c9753020113f53f4eb9b5d2a2650b2d3aefc562fbe96665'
p1496
aS'3adc5990dc9c43cb70dc2b19ecb0fabcbd9bd5a35d5bbee6d40cf5f558ad0fca'
p1497
aS'8970a1714337d7dc5be0cdb200d6a3cb235718642b338873d07fa1dcca3b474a'
p1498
aS'26db9a5fe9cfdfaa885e2db401ecd4a2a020a9f6d20adfe7c6efde163195c8ea'
p1499
aS'1807736a26d7f02ccd84e97232c5b71cc92c3750306b4518699146dd8f1aadf6'
p1500
aS'd26cfbf1809f0decd259c0560683560e9947e12568b6e99ca318d6fb5916c57e'
p1501
aS'd2e6559f9db3c84f6810ee505788ed1e48208b1f3ba85bc6a95b91557b24d87a'
p1502
aS'b67dac4ef849f291194040c76fdb4cfadd0701b74a8104dc4143d084935b2b76'
p1503
aS'fa481737e872f47de2f235e5ee5a73b12874e466ecee348d2006d1acb14d0f4f'
p1504
aS'efd010cd0a5982dcdee31b6ce74df5a7cd785d54bff2fc6d67a8bcb9cc8b15c5'
p1505
aS'2562fd71f80c043ddcd4c36f34a42c236a3d3466aa93853d395d43c3620ea10e'
p1506
aS'c9f08ffdfb0e9527666f71f2d95e2973406c102320c9045a24592615bc077bec'
p1507
aS'eb22a2603e860373e9a9fc437a8f2014a71a33355c33d5491d919801287da9ea'
p1508
aS'caee067c5a958d5333f1d789b514558e52c1250406d089c24daf3f7c8227c17e'
p1509
aS'a899b3c618ddccb5cc1122cb6b0b02c65efb5a60f404b89553b433fa900743ec'
p1510
aS'5029616a73e261abbfb9666dc3b02797e7efcb844c88474923a0a7c634e4e6bd'
p1511
aS'752a0cdc2579cc4704713f93ce77421f7059536c33e1409e500fb641cd81067b'
p1512
aS'89cb76f38159fe3e02bfe19f8bd0787867a27b9a8ccb8dc3438860bc01527d75'
p1513
aS'e41f275a2f7b55675c3c048c1a210dfceb95ef648ced75182248de37b8770140'
p1514
aS'95db6d3c855eb71bdaf2d78026f9cf0a86c8fa8e880f4e9a4e2e1a2576836707'
p1515
aS'6bf9ed6c13a583fab28b5b0d6162727cee250fa470ea4f4b3a73b76257305cca'
p1516
aS'ed9ac30822e6aa99d4f26ec5af95922bc06dda432ee12cd84e79c3b0e536451b'
p1517
aS'f94d1fe8398d5022be9c6d57cac45ae19c1a593103068e0b8525e971a385eb67'
p1518
aS'7559fa4c8f3606de92f76edbcbe7ee36ee73ac322ad3dc7a8433f3cfafdd5b38'
p1519
aS'54a6fcf4d96973f3a09f5d2241456ba0d96e64232a9c6638263a80ac2e7b636f'
p1520
aS'd8be6ad23fd009959d7bcee88b1970327bbdf27186d5e574077bd104b093538e'
p1521
aS'6a90c2c5c149bc1147c989ca27e940d8426e31b03349854e66a0b77660c39673'
p1522
aS'ad6b12612652a31710c240f0a7b4784eb79e113a26eab820d7ea6769a1e3f4eb'
p1523
aS'f63ace7f48f8e4e68d0bc0333f8e9c5558405c8a235bff9f8534ea546bacd637'
p1524
aS'8cc458b24d2c6bfb0066b34decc988e4f856306b3535395bdcbcf0e76e19cbbd'
p1525
aS'6229ca35248fe38fea7578de83e0d09ed9e32fb49cc209dc3c373be3217d38a9'
p1526
aS'd79e25c064f72d55b228e5b70fe535013ecce7fffa13ab4bcc5eee962afc36ac'
p1527
aS'b353946e95b477732cf7a2695db1e5c4d9f6e2410f28ca9f7bb25d7e597c0f39'
p1528
aS'd07291e975575ff5a1fff8a06d36867087176832a62cda6a124dfca61e80ffa2'
p1529
aS'0355a6e874a2867aa27dcbc9115497641eea68af6ffd1d6e532cd44cb9946b67'
p1530
aS'4df9c654b607db8afbb7292b355848986c1f1a8bcecbab9d2108f4e301c62eca'
p1531
aS'44bd4719c69775ca244dfc124d508de0ddbeeabf8599d61dd7085d96a5bae182'
p1532
aS'8f4f1458e91f04f09bf76e768401d24a75089ac5db1f4e454d658d6d835ba6ab'
p1533
aS'f6867fdb4566c6dad4a52d6fbb71f4b4998ac6b4cebe8accd6bb404c87489547'
p1534
aS'526391d4838c510dd41599cc4f4e0d121a58061838b8c92523badd7aff603810'
p1535
aS'4453fed32691934ad085988de8222867555b4c139890b85822a3893521825d21'
p1536
aS'9fdf03d9f1526760b465bd76e139ebe591cbd49836e18c073810f3f0e9f864b4'
p1537
aS'cc3110f785af840d740430b9f545c55883e9c60329cd970c8f8640be622d969a'
p1538
aS'f9da184fc998e17808ecb9d9f0bf885de231a5e87af74fa53a690ae73636bbdc'
p1539
aS'8db5a0ce7c0bfa16c6426f833dc52dbbdb834be332e2c38d8605f5eadf8623f2'
p1540
aS'cbfc98e6417d0a0feb9b57862f1db5dd32235ad13b658bee5350c8bc01dade8d'
p1541
aS'bd6aa262939061f720f1d9d94240481e0a5228ebcb34276e22b6cf0c413f12a4'
p1542
aS'ccc83fda58a75005882b50af90ece4ea4d8b793f3ed9758c9590a75932cc5d10'
p1543
aS'48376e911dfa2fd1eefb3bb34face082f8179f2be469106b01da4448316a30e0'
p1544
aS'f64da110a6337c6c2b01720012b1f360874b3ee2795e50c457de043fd46cb2e2'
p1545
aS'4624292d1c97c1923bfec5cfd4da773f3683ca082a3ecd46bb7e8fb8e23aa234'
p1546
aS'2f4d62b24c901af072c6da50328ea3d540e41cf497a619e9fcb59f7c60834c22'
p1547
aS'0375ceb33c6da62a39cc9564faac2b6e16dfd453bfeb23896fa4b0e8e0678cc6'
p1548
aS'5b0dda686e16207e2b58c2022b94890e7ab076173b4ff2708f147be2ed80369b'
p1549
aS'4c3a02307ec9f69538baff36c1522aab017cc66e4ce6dc2a50b67c222d63ff51'
p1550
aS'4b4aba0c92778162a2fa4eb39e31f586694d9ac87f5057237900f54e6640a718'
p1551
aS'78570ed7658ec24bb5cd51f62210b28616b7228a68989871e2c0e1a5f54450fe'
p1552
aS'1d28f981e8b99810f679f148410303719995496f45d0c7665b6606ebe843e000'
p1553
aS'cd9873f685db35843fcb66711a25177fcbfbb851230012c6fcf9c2836b8d9c72'
p1554
aS'0f4d4b88ee7be43cf6f0a5415dd7f9c096c70c06375e4602975ff477123d0c06'
p1555
aS'64043cbe7c80b52cbdfff46735c251b7714fe78c1821beacb2172476f16bc4ce'
p1556
aS'0a0d5012446a51c0992bb2d23e705b7e136a95449bbf8772f3882678afd3f902'
p1557
aS'58530ff16b5bdd4b0b8d7ca5304e33f3f095c8323430daa4154f4b8f542436ec'
p1558
aS'1ea2b3946e893a2d72d11a15723660483e1bd08dffc447e2aac2f2a65654cb7b'
p1559
aS'cce1da677f8e2c82d26e03e44e46f0b9f5f30a714ce7c13a26f5372a11860e3c'
p1560
aS'82b0ca18d72d9fadc4d142dcc98c53c58c01a1a692b92958f44a0ea47fa7c88a'
p1561
aS'63138a757c076347318b4203b42524f279d7f208d4eab4e77db7fecfe2390727'
p1562
aS'e6307fb7f65e14e857736af03c01e8b425f57aa5bace94261784a9bbcdfb2103'
p1563
aS'9038db6e48c45c4fd9f28cc65f82ba213e44200b4dc477487aecec6e4304f4fe'
p1564
aS'fed11ede0a07292afbcb0b72e198b604184ba434678425abde3852b36545adf0'
p1565
aS'a0915fc46dc2f75c1a98e2ee0af949f9565533e2605599e77978ac0adb13cbf8'
p1566
aS'bec6009bd186ef6e6b1e7a38ff5698a09181da0efc992278680c7f4852dc204d'
p1567
aS'97dc27c5cc359e60f9388a8c08bffd7a3c7461d41078f4eb4a47b4b5e6926c80'
p1568
aS'fb935fa85ef3c72ea0afe5b69786a17f7f79a8ca69479ee26a93645fcb983416'
p1569
aS'c5b39672742f2b732d1ead982116d9d96729a318b90cba4ef1b008707fad3b60'
p1570
aS'324d630262101b25be91b8ee7ea9b569ecba42fa8adf54cac64cdb41f1b62ed2'
p1571
aS'45878ea619c4a7687e5c5a6f7f68585f36234d273c30bba69250e81b02f65ef2'
p1572
aS'552582d30e5e16d01ef9908276cc045defc38d9b1a4bb6445514dcd5fcf81d57'
p1573
aS'bff22024c8ee208d4d7bbf050ea419490a41932861dc2a5f32de698e73a76a87'
p1574
aS'eb2547f09a889d147bc1be19c4509cc3d15d4dce245ab66f37e6c57889130c4d'
p1575
aS'33a89fd85bb723a9d37f31395a270d653a6fadfab8f245ccd0dfbf13ac3677e5'
p1576
aS'86d1d121730678bdcfef69729fd2d637d26dee4b59fab00c3d984e9c6f0ade4a'
p1577
aS'c6930563d84d05cead9d3439f344f0a8011cb25bb571558c8abf7e40cfa0af47'
p1578
aS'5d887481c7dfec86a5351646aa701a051340e42ce3867a34b981e1e56dc073fe'
p1579
aS'618b5dd334183ba0fa78cfcb11e6ad1e32464b99c60169efddeeaeed78139bda'
p1580
aS'e1900cdeee1bd428e6f9b65495be7596cb9ae2062081986bf546fdc79194bcfd'
p1581
aS'2ceaf43e7a249fe70e472e24055251df64dd1b28378f25e5b4f1cd1fec048252'
p1582
aS'8a79ee88ca6d936a13f362240ca8dd088a14b571f5eb597e4cacdf0b34fe72a7'
p1583
aS'bea08b19d43162e5330205da729dab8fed7adda82bc696edc093f450c14c1d0e'
p1584
aS'fbe1857ddbd7c0394ba72037cb199321a7072642ed2cd2de2ef1c866e5ea5a74'
p1585
aS'fd684a104b5e84aba70f2ab9d89701f9327fd355e7d4043c2540e14374f3d172'
p1586
aS'e81115b0b87f6471578bc0cd9f0b145a5e36f3eb1d6dac4562f553d5570dc063'
p1587
aS'2a8010fe71e2677cb162c30dd0c9938dbea696017007b760a47b940552fa37bc'
p1588
aS'765b3543b23461b000aec20b0dc795d71c427a3be24b6945443c88c14cb4a538'
p1589
aS'7624273d3c35d0d4e637b4b55732b778dd277b0483846c730b1e7a996b7f7aea'
p1590
aS'923092f211ed85087dbf0e9b891d3abbe6c578413daf2abafbf1e1a1fa31f110'
p1591
aS'192188e0d2539d67df31484d80dde15c0b922420f41c167bd533da79e320d189'
p1592
aS'08b874fe4f6b3cde133af6ef5764469e47338b990cb25aa02261edf02471cd0f'
p1593
aS'22147f17c8c4afbeb2e309e3c3e81792c189855dced406ceb82bdc5c5ee33b62'
p1594
aS'0f13cf46e8511d5c32cab0c9afb2717b51bb112125d9ecd5d7e5ac8538bb600d'
p1595
aS'e6b7cde8e0e61502b0e4b43f6383da2b8f6a6acac94068f35b3bade5bd1c883f'
p1596
aS'e4803473d82770821e28eefa003f64a56d1a8988e51d913620c6b76be23d8506'
p1597
aS'fd17763e6aeceffa1a7092c9aec1b41d13d1a02ec0ca498051670abaff541e64'
p1598
aS'b4a281fad0e5002bcbd24aa1126c488ef2a5649daf5e6587225f64623b8c1e26'
p1599
aS'82c893788b8fc3332b43700e84001aac96b4a156e0d50f131d821486fbad6625'
p1600
aS'0bab0ac667f97b5339c554f94f70093c208857097262ec813dc26a87febe81ba'
p1601
aS'1f748e352d018c23ce9b00b4598d3112e9fcb8c9091388511e28435f0c3e16f5'
p1602
aS'ab9fb46fa3a80605a3c500195aa0a3f4e6a37da8437f8f04a5666df6a63aa2e6'
p1603
aS'da93ada0b1c6e13f52d96bc35e5102a1d4268a3805a59e991fc8c9c3cd373d84'
p1604
aS'9e5dd49be453f972ee569ed7d16fc313b2312c8482031971087611a40a7a0002'
p1605
aS'b1a3850e00cc5e1ef89f549934155e81c4e7d0e78d5b94adea4c8181c725cc29'
p1606
aS'5af8a8babb3c24d76d9385c9d3d95e89340734b7b0ca30624806366ffb619d3a'
p1607
aS'e0b3a4d7eb75607a23b53b787dacfe0e4328e7b53c6b8c750c3bb5d4f9512591'
p1608
aS'af02872a750aea02ce6246bb3bf52723f37b09f39e3f1ee37dd68efaf3835c74'
p1609
aS'07a17ac84f00b6f3ff0147ba48a89aec91d7ae2129b4293b92e7ab5469cf606d'
p1610
aS'79ceefaef4d8d594e157e4931a2990b5952d1b60773f99988c8f1f3b3d38055c'
p1611
aS'7aa49b69e7080a5639adbbd60093236edad0e35db2a89186bddfba9a0774abd4'
p1612
aS'2c8fa60a8e9079d9a084891af2cb9d5991f978fbeac2f132cc4d86205f16e472'
p1613
aS'7654b44323546701f771b178cebd0668521a1652460715c1aa009f371cab78ae'
p1614
aS'a0be814d67dd836c230206e692179b209250d952d6a68e3b46a9e722ae231cf8'
p1615
aS'15baf5810d5a2d611e53820d2e91404a9be1ebf62252d3da34678f017a6f266f'
p1616
aS'965e953164ff5cfc46f134fba06bd35a3f267e6064081cb32f8ce4e97812e081'
p1617
aS'd9bb6bb975ff1d2b44046d95090481eb289e5426226c355ecfdfa79768762349'
p1618
aS'f5c70aece73d266ad8acb5479405ada49fcadc82fe0967508de7ca0cc325739e'
p1619
aS'e1f073ecb9d02efe4c9f0830dd16fb1ee8a3149f503e3d1c07591fcb487d7d8e'
p1620
aS'988e8943db9b2d15e5b99d315adcaf0725811d5da5084a5e208fad253f1e52a6'
p1621
aS'a97bcaa638f14ebb592a9b05fb682bb0e1c6f39dab3c9596f6ed8c387bc5d4ab'
p1622
aS'51d0ca327931b50f12090cb244166a16e0407c6e161eabe72ce4dee9ab636314'
p1623
aS'5d603a6ebe9452b3c84377a2fc94bf013cec6b8a8702f4485361c001ddd10213'
p1624
aS'4f314f4fbd599e68a5f5381dcd0a68a0c70c6b3914e3fb9aea30dc5704ebfeb3'
p1625
aS'9c60d1c79ddcbc446c41fbc523e8818ace5624dbbe38a9fa6da092f2a582a498'
p1626
aS'710bd5426b5d72c4dcbbb54575b3f203f7d713bc4d458e305a8c145ad2ccb181'
p1627
aS'6ccc8878cc5c886b997be17363a98d1f3f1eb03125a7de1d826d9d7b7398a699'
p1628
aS'62f8d119a5eb74a5dde21cd7d2a8e5062b4f510061faf61b52828bccd97ac8d1'
p1629
aS'8062a93f62e14b6a24c7efb1e702b3372749403045e11a7b232aa6a7fa9764d2'
p1630
aS'b240827f1fd5af21c4e1063fbd2f195a57dc8fc0af2170fbef88ed581611ff75'
p1631
aS'abe2b89b914d213f959fbe2de819d1a203a6c91bf603fc596e46bbc4247c40a0'
p1632
aS'564054609b646f02177e16821faa274fe4aea4ab9e96e3704c591265e74d3fd5'
p1633
aS'd263478566ac5937bc0be540359542170c4673ffe17ef4238c4fdf7b32d4f396'
p1634
aS'af7e4e78e281ff9ff6c61eb470960c8b97a4b274b3067d710043f58c9db81292'
p1635
aS'457c61998f63f732563af21ee4cb3628aaad6fe38c19d09b5f90f8e5cb436966'
p1636
aS'564b46eb83b7d889082b0a20c1ceaedd967d2eb03e271f2eac5ad217d16e11e8'
p1637
aS'1703d96255d159f8ec18f4bf43b27c7115fc3cb9c76e3ef0bd2b572b36e606db'
p1638
aS'80cbaa5be6218a1ca4c09ff90e0d76d94a8a925dd60de74e49a8e2bbb979bac5'
p1639
aS'653b516ae85fa4d0124d8b6db3a9d17ee6beb821048e0351c3cb4dabf7f01281'
p1640
aS'5da822ac832471471245b2e4c0f3dc43d3817f6ce4e102e92d280bf9356ddc69'
p1641
aS'b963af829fe198ec68275440ad1c953690b1a61bfd9a5c65f791a3d37219da0c'
p1642
aS'2d13a532e9103b644c9c00760bbf2b8e2afecce14970c06e96635111e1191a61'
p1643
aS'b894599052fd6b8e6c61966f922f1876da3fc1a686a63f59484ebdde968d431e'
p1644
aS'0a94bd6aa8e9525d3ac4ff0b9d0884bfcee6904c8a67ed4ed8ec33131cd6257a'
p1645
aS'3a61e15da7e225f7bba20006f40b3d8c6fec71da70d566d45b89939cd651d633'
p1646
aS'13410a8c36e37b04d2be53aba96946c128de358991dd23e25ebd39dca40e512e'
p1647
aS'94bf9314e47313fcda1d516dc78a2d4278df2ae63b00279520763ac447db4ead'
p1648
aS'd2810ef33d33ee979a1ea7528027fe35705d2dff52f927cd0b1c90a18966a7f6'
p1649
aS'82e42dff253085242f296fbf127759c27d3e309996edc4fdc50b304746dbd7f9'
p1650
aS'126d49d994b3fa70c50a42aa4f80c40134131203ca5b08528b915b0751e0cbcf'
p1651
aS'0fa95d64b97481436a0cc707c2184fc4849c5eaa0ae0e99a0be76850e1c5f62c'
p1652
aS'd657a302b2834d1f934f47a52dca0942b75473245470368301b98c50bb87e73c'
p1653
aS'26c54f513e22848c1fc0769208945269eb647f5f319138128347f656bfd8b777'
p1654
aS'61497166e7e49d01f8a61c8ed21d7f38c8a6e69ce95d8095c1c6f87757381a69'
p1655
aS'4031e52f133e328555300f7ca42274628e27f9944dbcf3a8f87cb79a65938fd8'
p1656
aS'90990c46f3e551e3e6b1119739bbb97c9ce2a7eb679a625b3d7d6224698eb11d'
p1657
aS'5b3cdcac6a9553061c03bc7d205d1f3e410f1c43e10195060c79e4ff17e2c9fa'
p1658
aS'43d43aefb4978bc008995e265a2e347a2826694c03a2d8e2eaddc12ac5435958'
p1659
aS'02ea7c11b7479fbbbfe2447913f3e4a0194b7caf62390f291ac4efb88f918aad'
p1660
aS'709f59fdb45872c3536f76513ba6f31b37eb54621d4999af84152b6588ad826a'
p1661
aS'10c45c5ef56c9ad27453c299b96687a8ce1e1b106791ee5af409fd6b6bd72dd1'
p1662
aS'56f414b4835b78909b4a05e0cb120d4d21470482858aeda0fa1716c6016dcc26'
p1663
aS'6745af76e4347f5a639c1d14cf88075ac3fe40c39c6596eceab07692d1b84542'
p1664
aS'6601b4dee6db8b2c269d5ba704bab8dc7ab284ac9cb03504b47418a7f9663968'
p1665
aS'b0afdbfbe81e1b09c4331b93a4adf525388fb8273fb4094e8521a91acd9b404b'
p1666
aS'a5915732cb76be65f8dbccb6f7f9e33afb3c3983a436ae42e5e70dfb8f37055b'
p1667
aS'46c08c3495d6e704974a0f57259eb7ee0a2972ba8d7a1f28fb70d6a078237ab9'
p1668
aS'44cd5bc06600a0235dca79a25cb2a80e70554bb10c4495c46464e41f97436358'
p1669
aS'2f2049b80872032bc0ca5541af2bf07f2e807a1fc358b3e5471b8e4481fa79bc'
p1670
aS'331ad798cf8ccb9b37e04433281d056f99d005dfd26313e3e4e38bcb9566386c'
p1671
aS'07443a05efb8ba3f60beed9b93cbb2cc85c494448690b4009f8260398bf6471d'
p1672
aS'6b0b604603096690549714e851b6c9dbfa2c164c512b55be39ff23fc0f674907'
p1673
aS'60725f3cfe1a03a1727ffa39d225c9cf63d8cdb2e77901e6b03c97db690823f1'
p1674
aS'7ab1c3119dcee17a2d30dec958ac0dc6595e6fa5f7c157071ee6bbd8322360d7'
p1675
aS'afbc5329607290a4ab7b0e9b66dd7d17ba20032d749b9d08aeca6f42299b83b2'
p1676
aS'e8f55e3ec9371aa1cf41f5a6d26493d69d8d6c772e892b80d171904369c22499'
p1677
aS'1172231bb17465531c924a04885244d26c02397d59bd4c4eb01f77d6aaaac976'
p1678
aS'98e29e3552add040df8c3016d4bb7947d3bb60cd28214a8eee6cf7b969a6f344'
p1679
aS'5217276d044353d7bf05e1f15cac75c20f89acc7bc4ef8a71fd2d5f1af7cd3e8'
p1680
aS'20058d8ddbb73066f4ce90663a8cb7ddd8a8c415f23aa05d1d0927ea52e9d8f7'
p1681
aS'1b5327fad6494e8569f13f1adcbe407f24c812ac400e8c4e6d7ea47827cf4b05'
p1682
aS'7abef10a7b795b5f87b3538bfe537b30cc2911022f8c357a3747629c065acb29'
p1683
aS'6c6da2c721f93f139d419eadd289e34f6fe74434631fa610383b0a87d78c6a7b'
p1684
aS'857fdc7909d924444d25421a81b103ba7a36c254057dbe85ac8d0d11e85ae057'
p1685
aS'b1b6365963860c7591f5ed591770549ee0bb19f7eac272bb49db1c8c29775cbe'
p1686
aS'0c57da9ed2faae26808e31fc83439b816e649f3c72afccfad8822fdd2930ac8b'
p1687
aS'87c697702a3962d8e07b962ca59054031db64b0965b0353ea9734751f091deac'
p1688
aS'000d578955544011ad3d0c304212db8c6dcc912cf251e238841d77ef764f596c'
p1689
aS'3b09f2de277af7a7254c867b0a06d89eb6a7acb516e0523572aec08c2e09e85f'
p1690
aS'9a133a7e4d780505f3f4e3bae4b8db0afa341dc886970720f628bcbdbe2d23a7'
p1691
aS'f12117fbc75fbcc599d7475e07a84b8c598581a2f2bd33c06b60030929e738d5'
p1692
aS'ef238e0d3c6b965b8a38349ad6a3b318af6524212bf9d753389859cf2528739a'
p1693
aS'c4ddf89803123c2495510e9618ef4c608113dd532f014505a071659a85ad319a'
p1694
aS'dc534e900bbb49581536494e1c0459c47256e2515b57d11886bd4b3b86a3fc37'
p1695
aS'5c0e62e3157585b61d528fb9c7d7aab9c9a87954cc59d45f2ee01051d54d0a38'
p1696
aS'829af4a1a46cba74fbf09fcbba8281bb98a403681d70ca73abd248e76f960b7d'
p1697
aS'cd8ca9450172434915dfb1fa8a09a90cbed20eedcf01b0eafaaeba40e288593b'
p1698
aS'eb444fb7616ec2196d16446c062c16c6874bc067f549cc4b8d0e6e6b1844cfbf'
p1699
aS'c514bbe6de18a37027f8c14d556ffb4647cb9ae7bc4f61126437b89875147934'
p1700
aS'e355b32cfd180d8a629f8850e4c9e8c0882f7cbac91c5e3ee72b62b8eac43638'
p1701
aS'a414c8ab97184512fd28b5465946e244eb04fd65845b62cba4b830179d620e7a'
p1702
aS'0f71bdf11aedddeee9b1d407f2dcea11bf36bf4df0294117db3927e522a36327'
p1703
aS'b177e712d991bbf59ddd07eb9ef04ee38599491838ee6160443182548547b308'
p1704
aS'65015d514b8aa5db821ae01003b82e542cf9af7c1013b5370b5c7ae24a2f06cb'
p1705
aS'0ca410deba0c1fd081cb656a09f13507b04d15f0cb04c92b539e7c59b013c18c'
p1706
aS'faeea9f4702e3958ff00a43a0f8190bf629a34bd0131f4c31c9646a4187e9f8f'
p1707
aS'ef04c1afd4387e254f44369d30ee26988384fd90fda02e78592443a874cbfdf8'
p1708
aS'360abdc5533ae0bddb6b851005080862f76ce7dfb86af4b3938a3db460f7fab9'
p1709
aS'1c4ee507c6884ca21d3fd115b4708af824dd37f973088445434bf12a73957e24'
p1710
aS'f60ebb09aa6732df76015895fcceb33d0b962f379280f0cc46c51c45cb420a4d'
p1711
aS'23a4413b187e32eb1f313cff1b14062fbbfa029f0ad3351c0ddee9bf29139aea'
p1712
aS'e57e33221795305605666c3723ba15c4147cf1a423671ecd631cf6eb2ee4a4d8'
p1713
aS'4be3cd891b940e8f8028554c92e74caaea4e086131e176701619678d8703d970'
p1714
aS'd6fed8a7bb76127d797041e5f5c4419072c8ee0265fc00a696afe14e946a0355'
p1715
aS'8752bb51d42c9d0c139098112c66433b5702236b62f768470ca96d6e7b0622cb'
p1716
aS'17913a50e01187abccfa98d62a8f32eb27ca050a4f3decbe47ef7b5fac52bdf8'
p1717
aS'b6c8f36fb52d2d2d58a5d2cb302279fe0547ae1938254bd8c012fd4e7c956b6b'
p1718
aS'92bcf425b89c0b58402a875b118da7bd1d5bc8b5093ea7571ea911096b9c224b'
p1719
aS'45f79f9fa2dad1046bd73845b8a48275a03d09fb1ab50277ac51902bab35c39a'
p1720
aS'688a83428a59cd3cdd0e1994970c94d478212e37b849f7b22113e00b5656df6e'
p1721
aS'63809dc645772bc31f2ce02a5c00cc9e01f9a50d6b0203defc6bf07042434839'
p1722
aS'6bbc4e2d10f80b9c13a50d3584688a9d4605726b72f3632ae6a93ab98c180264'
p1723
aS'4247f0172e10870b6a3564f91d3aaf56fda5af1a5b1269f278615c001c9484ac'
p1724
aS'c04da6315469153231c2db4d4c45c0d0239f631e130d619a709a8c1b38333112'
p1725
aS'a81f3821e69b4dfe0d26164260e895f616d1c6b71a276d52c3e891e63f976765'
p1726
aS'b352167fe63906a9465433cffa63afe482375fc43b37f968e689f97c1bdaa3bf'
p1727
aS'a2de67b867e43feef7da96658f252d95961b5c406b12d3b99b41b066f4d9bfd1'
p1728
aS'688719759881f53ab392c62f35ff6d69e7ca1ec0077b209c487f283b9a773f3b'
p1729
aS'a8b99ab2f5c4f95efeba324002a9b7838b0d6508539e7a99949e694b1ffe0a4a'
p1730
aS'a4f42598c66379911b978acef49da306b949f51a914fefdc27ab86928dcc7c99'
p1731
aS'789296d658950b4dd78a12e78bfb2bb41f2545a1df765b488371e02656f4bea5'
p1732
aS'c2b50a21d368b580721839d8f316d71514f6fc72a8eafa4255bf66d911f0ba99'
p1733
aS'c9fa6cc24d472115ec9e7842ccd1c100cdade7643ea3cfae330f8ff43e4f1245'
p1734
aS'26d0f45d3c868224332ba6dbcfb0f2013edd39ee0212f8cc65048db63087e1ee'
p1735
aS'a47bbf3935fa8ecdc20d6f511c0c94bb276f85861542b649570399def6a4ca68'
p1736
aS'75b81fe0f9a195dfa4120ca6dc9a650c412fb04f163f2fb8aee84e080ee26dd7'
p1737
aS'6c30eacf4d5c7710bc86a29423c55c1201e62511b3b68f818fd819a1cd941c97'
p1738
aS'2fe8364fdec483781b510ecc77c8d2aba793163ae4376caf60ddba0207e05070'
p1739
aS'602a7d12d33745bd7c3733074b4a7fd5f2204c3333081f6604dfd40f982cb75f'
p1740
aS'58623c0507e0772f1e65d35dda110430d18b6ef2371054eed1cc81c8a9813bd0'
p1741
aS'3a29b4b3a010b6eccd9eed8c877bda5b78eb2831e502d1fc34f5e4228e1c60b5'
p1742
aS'8544a9fea5b13ca942c3bec548626ca588186d69fd584ac12871b452b4c95759'
p1743
aS'3060d14c588028a645bb6ded00cb75d0ba1422c8cdff3f3ca3f118e0e6448f2c'
p1744
aS'1692aaa04c624f3984bd5047638101686920061fa4ff5686de0b4a4f637ea449'
p1745
aS'd8018051b3e1b62573aced6a450527b3f9bdfe0317a5c74ae04919e89e20079e'
p1746
aS'32255292478f8e4f09d01f09e41a01c7ad0042e0e4ad5eb07ea8ee9c6349ab6c'
p1747
aS'cbef5f8a7fd881370df0efb6ffa998bb7e50156bd00fdc15c8ac5848b3529cc9'
p1748
aS'4c5be860388052ed10781ac532996def15c1db748a3811cf9eac0bf651c650b9'
p1749
aS'ec07c78f60528d946136cbb82d6aa9e693a04eb949ffd8bd2a25af35ebcf27c8'
p1750
aS'4d627c84aa36f174f3725670f1b766ab33d45e1d9bcc6698df24bd60e2e8157f'
p1751
aS'2ed79996de96c2e856838ba153e079cdbc0891dd07b3752fb7297365d9a16927'
p1752
aS'63db9e8cb321042847cdb22027ebd24de09f583978c12183039b5f1f12887cef'
p1753
aS'747fba9aaf635579e3f405e70af344323dd38c23c88b34ecf0590591099d127a'
p1754
aS'eba4f6aee45204423a32577d6ab73a779c0dd2688f681a21b9d8d505b7fd54a5'
p1755
aS'ced9eb71f52132e47dcca4eeaa7e9ca4465cec9a577029b698bbe32c34f07582'
p1756
aS'89012a2be128eb637e47f77d9b34f6bb4b8d37d8a3a3884b512a8db518747277'
p1757
aS'd3506b34b5549fc80b1a8eeb70e89aaaf93b2fd14cbd6704e5e79e4c3672e09c'
p1758
aS'55df057a7099e41b24bd07ef758ee63d4f148789a3c31d3a14577b89c1fdddc5'
p1759
aS'6c57c973478456aae23aa5a18e84e159a640e2e05e5e21b82bbc2a24cc83ba50'
p1760
aS'2f7327e04aeea37f63406c9773abfd405f6c9828fe07272c84a2f99d61e39d76'
p1761
aS'450991936c153945ea2ba069595e8a387fb1a405c334ceb901a62f3b1b9858fd'
p1762
aS'539c4fbcb9e06f03d3f7a04a0d8c712dc31fc755a4a30774266ef93291184c8f'
p1763
aS'756c4321e857573c17d1a8228441aa4f02a60d45a0d93e351c0dd355af9ad7a4'
p1764
aS'c17fc8e529a74426127be6d5b50d70edf1168d4551040abeddf3600de6a4def2'
p1765
aS'bd84a5958d62799d23c352a4915d9007c0b6d8a19c0f0923984c4627818d08ee'
p1766
aS'5f905446b7d93f748077eb06d227b1ec37f27bd023d5f6221fc9696f5d2ab2fe'
p1767
aS'edea5b2b160352da9ab741669d34ba7a61ce53c378072a6f9224273f317f6078'
p1768
aS'7c0cf7d2668dac14569cd8dd131d5ddee5400111fde2f042b4977805de958aa4'
p1769
aS'5ea65e9594565a65d26e3f1a7d883fbd31b81831cabc055d3662c2e00e12641f'
p1770
aS'081834f1628056028a90edd57ea86ffc8cdb9229706bf0caf920148fc0d93458'
p1771
aS'af4358c6fdcc1461211a4d2d4eb4585c758417ade3da3f22c2ad3fce50720960'
p1772
aS'b24efbf30d87cefa379b16a1af8ce133585f12374d4750fbae19d339b43af67d'
p1773
aS'1a838d3f55fdd3c2731601430fc69739b1207f32c0c34e49b14d367cdbd91d3d'
p1774
aS'9f82bc5c6a34f0466abf630f52239873d62e46de4f84635fab2a92b229def096'
p1775
aS'83397dce36e61c684b41bafd60531adc2e560671c9e36789aff3b1572104e0cc'
p1776
aS'd30128eb626f29cb276a23407044318bbb6a8cdec10f2455d18a3f90a1e7da51'
p1777
aS'37d3ba9d84216d5cd137f7c954f3eebb07796d509fda8b8e65fb23b26638554a'
p1778
aS'6d8d263caa16bae26d825da5d947b6bf786a2b5a7cc6354d05500b3bf9804dea'
p1779
aS'31eec0143d10e6e2b1ac7da2dcf044f7f48c1e4a82e2fd80ca3245fe1fa183c3'
p1780
aS'f15ca114770078c2062e6ef97b880d38d2813dbd9320e3d15116b595ba0545b9'
p1781
aS'deca815db8298281bc309e397722357bceae61982d523a3606ec6888ea7299c1'
p1782
aS'f39bb01fe7ae5e1af488d16cab2f4cad3516c086ae7532ce164dac97a61dcf9c'
p1783
aS'955ed8817cb5fe827e7ed83fb413a0bca17877c613f42e3f57058c63c3169d77'
p1784
aS'f4aef2b58cca25e50aaaeaeef183709aa4592ea3290d38f60b9386ed8b1a8559'
p1785
aS'2ad90a2b48705333457c2f6d550fd5417dacf6049ef6b7e288aa10a5b9eb9da0'
p1786
aS'791b54c74e5f1e2563a69a0ac109d6aaf71a5b8c97b7c05dafb17e1a94614445'
p1787
aS'0f0ff409dbe3a20efce812461886e1657d7c709bb59253e8673ca50b58b1e45b'
p1788
aS'9339f9840ec23867154a6f795c4da7838fe40c0634d5f455f9dce57a8cce03f9'
p1789
aS'5133a7a79fd7d194a1aa1908ee73bd78fbf917da24b07b16f5d74338b297c9b1'
p1790
aS'19b5d45cd487562523cf36f76754571c798a2c80b39fefabac6dc8be37199828'
p1791
aS'30d03842d373e41fb3d6751602eed3c1bddb48c1af0614d179795419cd8ffb4c'
p1792
aS'88e34d6a7c0b7052b458c59094e9256a43f6d18be3594d6c2e144442f1908b8f'
p1793
aS'3e05bc32a6de0dcb399ecdd22023b3176ef9c0349ea96c39bf3a37a1a6e520c2'
p1794
aS'831763f7b3a105798979a56f433779678fcde1ac9229e56a319e71855cef9048'
p1795
aS'33fca37eb2b49e00c9e8d41eba7ccd629d6f48832b0541f0db57a12beab6c67b'
p1796
aS'979a6718943f04cdffb8c0f21807cf05df0a12148ab0dd4bb970dc6b31e8f49e'
p1797
aS'1f49d047497c72c1279a99b31882cab3eadc6d002b8b420c41faa282ac0b3e90'
p1798
aS'262bb3e12ca8169034c42f90f56c6bd7b7e57e8dcb69337bc04bcf5d2e4ab0bc'
p1799
aS'1ee7393eb3df1a7aa3e64e347bc2dff8d81cc054aa92dcf8d37fffd13d31d90c'
p1800
aS'8178fbc40e0727da9c0651a74ec8b0acafd0d529a80726cd8016d7ac513a7f90'
p1801
aS'c2cf626d77e0a75ccaf1cd1cf31a76e019cc57d3ca7369eb3663ca81ec519dfb'
p1802
aS'94f6ed5847d422d1a9395c8e1ac2c02da81f188c25029aafef75d3ed9f682b98'
p1803
aS'f6aff2c038399a0cae1222a57bb67180d93f580b70ecc8e8f5a77b6bb023ff22'
p1804
aS'3d3432247f84dfaf121ef54a9b562ae88a0a356ef30a51ecd3c002fc1c15f48e'
p1805
aS'94590d33ed5719c991c0d6fa516d3a979311c355d08f2114e6dd106a930c651e'
p1806
aS'7b08dde8d2e9e557735b1667833ccba4c1ea5b8cfac5fad0dc698407b50b8922'
p1807
aS'1977c1bd0bd7e945e4951d832c99b1be26a45aac782f25d6593d6d2104a4f516'
p1808
aS'9a7915b27f2d3fb419778d15fe33cfe06bbfb84ed9038935c228c6161f2273cd'
p1809
aS'847b0570f1f99592ed98650acc9098658d0438c0989053744ded6e5c4433fafd'
p1810
aS'2b6d1441ee35764a616a608f41f24843e104ce4d693cf6339ee2d417fe8d9e02'
p1811
aS'1770244e03182fe4ab2c628663db09688e41afbc634a3bd627a934afb9333df4'
p1812
aS'312bfff4790e650dfc2858b62c65ee094b4b9e49072dc896af4f3eb7fbfc10ad'
p1813
aS'62e6bb126cf4aaaaa03b3ef324b7ec4724567f636c26968dc016486f4e7d8255'
p1814
aS'58c8e84273e0a9206f42366b80542352e9c842b93f20f1db3b9fb48785ec3416'
p1815
aS'4b9f48ab4973ca2b755670739cd90b18b9632582862f049397c6c462e4412c9f'
p1816
aS'c598aefc4c2dd6890a5719a1d5c24b571f7f645ed47ff8a27b8d21deb19cc9b4'
p1817
aS'd117308cbd1f9fb62efc214fd70ac2687522ad442f9bbb35cb7444cfda091f5c'
p1818
aS'54e994a694b6f90d77cd21d2e071cf9ba4782b36cf18498c81476a3a2ff101d5'
p1819
aS'b3108e179fad398e46228cffdb8a3e7068dfcaa83fcac682252ad6669e734fa5'
p1820
aS'c386410407d037190a9da37f0d61a48204c59713718e509816d6d95f883b1508'
p1821
aS'cb8ba0baecfe6673e38d68f75ffcd479f327129a9e3fa5e5141a486827884705'
p1822
aS'89085a4879bb0918058f31828763d1fd1f74a1414039c09ae7955de3b1aeaf53'
p1823
aS'bce5381a74a845e90cc7794acf42d9a63b8111d22e519592a5495ba3508a6329'
p1824
aS'05135a292c33419a0f3e877a3a09df62c628f8bbeb648b0a67ff7ba15ac143a9'
p1825
aS'2176bb6864c624c1f9f545b2e233b45b166d4730879fd5195bf48919c161a05c'
p1826
aS'5100cfc44a37f9a6cdac1251cf0227b14c6ed8e76a4d6d92b383f56e8b88eaf8'
p1827
aS'da889881b063947b39a9dc8e0379ee948c75d3f818eb30e9d4f06f166b159497'
p1828
aS'b8bfcb1eac1951a85cf8a1b5b85c8718ea110359194b46dc16deff7a4dc37513'
p1829
aS'9f4a0f6c24de35505a442107edea8aee3ae8cc3b0a05b9bbe06fefe3a5387f2e'
p1830
aS'4d7d0b08b178e1798d5769130b82c83b53c6ebc5172ff4e75b22d1cc6331755f'
p1831
aS'e8cdbf608bc43149b775767b018f52b42def2dcab73bbe01ec579ca0c0455e3d'
p1832
aS'07eee7cc3f26dc8e9f38309906b59d3c7bbb54ffe0741936cae188303c1f6852'
p1833
aS'90000cb399198864b7bce9254b455bc79e322ee4e46f43b39d7f74ea51d86a27'
p1834
aS'21214019901af20f7465b7acc2d229dbb298d909f86efa4eba8d593dee6e22bd'
p1835
aS'924e3596848995d82da0e00c152b4bf845501b6b99921b61bfda1df5717eb0d5'
p1836
aS'cdb33f2ce810b76336a10c9a1b462dbeac80f68751eed043f9cac064aa712376'
p1837
aS'140edd59ccd95a1e2e00a680e5875fa77a8abfdbcc74a8d817a69ca446358213'
p1838
aS'40ca0e56740b22de34a1b7f3aa1403de71f3508e7002892600f76d7d47e70df0'
p1839
aS'5307969e5dfb2da12fb062b7a73ee63a6a85b282608f29c403170615d72e1f8a'
p1840
aS'ea825403159f359c5f3a8526bccfea5184c29aaba651fe9c12120656d21ac6cc'
p1841
aS'd4a96cf296e05791e8ab8789d9ce633430775bc89f6b17004f1eec5ca0eca2bf'
p1842
aS'8a991137d13e693eb4b616b78e4ea98b9a2089eb19c3455cde707515c21c4445'
p1843
aS'f7adf0b49438521e0cd5866846e7249dbbae72c8a33f6ef7d7430ab355e9cc06'
p1844
aS'8fb5846e2238c71bf07a7e124c0e6315305d71b80c752114493615b1df575e61'
p1845
aS'4597ff2053b69b1970c9105f688fdd0c63e37c1e4f53bcf22bd138dd7d5c6fd9'
p1846
aS'51133442372183fe643365705da2274c0be300fe712314e57a12006c5f13c9b2'
p1847
aS'461d205946220cb1332f38f29594950a27049e30fc6b4529552cd14e56ad945c'
p1848
aS'ef135c5bcd18d1c24957be9a846ee631b6d728742250821fe72ec41e4f36eaa6'
p1849
aS'f59e1ce77827d3dfa59237c4de1a07fa8f4c65d51758c7afcf6c2b2e131011f6'
p1850
aS'1f0af54495cfe6b7b7161692e59e4cc9a0411268c09f930f4656acc49a7a5d9f'
p1851
aS'48f89c7a06c29f629d65eae507bf6c9943c9631845afc6dbea2e73048ec2c3ef'
p1852
aS'e59924d941bafda63dedb70d0a0911df41828c4d224391d3bfa896cfd592271d'
p1853
aS'3e4b2da4ce4b60c4f6ee4e3e2ef25d3cd71696789fe303d6485166b7843f0e0f'
p1854
aS'fd17763e6aeceffa1a7092c9aec1b41d13d1a02ec0ca498051670abaff541e64'
p1855
aS'3e25efde0f662f3eb15480b962dec4f1eb5ad342661873722e8bcf9335d37350'
p1856
aS'373632dba6a7303eebb298fcd389485055d1ea70776fd720fb1563103b758e5a'
p1857
aS'e90e2ef5b2b84118fcc6068851272b2ba859294527974fc235ef8379907ae733'
p1858
aS'9a4e3b811fae26d058022c6904ade87d1ad30f3274876035f2fa35f3741b7eba'
p1859
aS'3288d0e70abd76f9f9e7d5f9ee51b659d717127a3544135a0608751228082e48'
p1860
aS'bba5b391b54f6c13f99fc2b5e067fea6a48cff1e3c39f8cb087a894c4c4f6500'
p1861
aS'032a26af29e84058b8b5f6d31f22928e3fadc425925d7457de35f83716a4f212'
p1862
aS'79847ccc99978b101ec43258603a30dceb4ba615e88561305cbacf2d6a53ad37'
p1863
aS'2f2b8637e042cd2636ef6a7ccb0887e8aec6a8c14ece5d7cd2769203b8d71a74'
p1864
aS'861987deca37bb4c54e56fdf4fa091b90b815848589d71b18d6db26f87f04929'
p1865
aS'46c117e5c10bca6aa3f43a7894fbd1bcdc61deba40e75ad679e454f838505181'
p1866
aS'fcb411cfdab1cfcab491f38f601de26f46b60c265f172ce03b5de82ddabe0ca3'
p1867
aS'7e534a1ed8a1f2f4f023fc9a6be6efc4536d914c540e29512b7c5854efbd6b48'
p1868
aS'2a680694aecd78f992e29ef25bdd74b458fcd21a565d7fd1ecf2f0ca93585966'
p1869
aS'0b47fe19e21cf3eea2e272cdb417416435e07901055668f64979e22ac270aa93'
p1870
aS'cfb98eeedbcb3b63697d3d7a9a8f32992a8fa57d5afa972e79a3816caf3dc3fb'
p1871
aS'43b7ee4c79b457380fe1c7948ed5f8215d6bce08145861e9e051d56133c20612'
p1872
aS'c03a9ea0dd637a41e276415daaa6f27c1b28ee2b98db1748443f54dc3f3d72a9'
p1873
aS'867b535d43d1a985fc2b5d003dc4e96aa99e91851f0fdb7dcc418ffb6c21a104'
p1874
aS'cf7a692c9cd19754fe15abc9ed6759ce340b4d386d4003f25af3e3662e37ec7f'
p1875
aS'e6de29b76c68a73aa432ec829ab5b22458493852bce98ac832f1ea555ac5ee2c'
p1876
aS'89ac52f6bf7558666414351bcbf36406b8a0a8e3d3b819499b47a219e72ca790'
p1877
aS'2c3765cec0a275f91bb0e7ebdedd3dda80ed2c81bbfd78595f999726625931a1'
p1878
aS'0066be91aef540f179b2bbea84c308b3dca0f94fd4520a55f54e7cfb2f3a23ee'
p1879
aS'184e459f3c22e3cf6a982027fdf946a303ad237effe85385600ddf5c16784be4'
p1880
aS'8630b6665e2f174e482dbcf3dc9f8722fe602ce824d9c7ddb8fe74400abc2886'
p1881
aS'dc989d3dd1c92018f57607c31728c48f267e092d50e5f575301a1244ddb72229'
p1882
aS'8c8a85ced5141b173ab351da74d0abb0fe4bda8874d399afb1efe27598ad5209'
p1883
aS'ac224b1bafe06de4396df60332c65c30fb454f5b437e795015c0bd0409312e45'
p1884
aS'ebe1a7e60408d2a7ca1103ce39e23f11b491f8b91e0923c1037aeb533d9a4046'
p1885
aS'4b1a7cd070f5777c8d0508decf5307ae51c43e71ad94faed9bd85b68d90a0a15'
p1886
aS'2a827b6287c6ac5d7f1fb9db9c2adf60a80297a87b4097fdcccb6802821015e5'
p1887
aS'a348934e57e2bdcff35e8a00f11c6e5134b0c3a8bc8b90e959726d1374d7870a'
p1888
aS'3bcc8ffec78d0c8e3b32bfb3aa1d97d090817dd9ed325c6ad3d96f325348b52b'
p1889
aS'8114a62163bd2821ae2ee82820a74a854b9e94340788007f867a2b21afb474c4'
p1890
aS'e994577bf223d4c836c592c46c287b253563610e59aa4b71950b05ebcf3e7645'
p1891
aS'4295ebb97ff3c4756dd3e2caa13a8246af759737ad8f41292ed5481ae35b2952'
p1892
aS'24091fd720fc6386717bc95ea8d987f83cf7ca61b834e7f09681ede32670a270'
p1893
aS'271a7f664cb4146919d9a29ced0bedf471c209f6e8b50b5cf3702499eecf4a46'
p1894
aS'e1c99d7fa8735a77f6bf58d4151a6f7365cf618e74a6cb574c13eb0efa461bb8'
p1895
aS'd64d41f94fe9d0eb969d8dd5224a672ed283d72ec0359fc5e55f5ab6a0de47e7'
p1896
aS'fe9a0b6a4b91502e0ff1cf5b9210b1335c042cadd73b5fd285ecf5105e7ded0b'
p1897
aS'a3b7f07927183c7e93875b6faba20a2cf2805d3bbcb3b667a9de3f4b5b6daa1f'
p1898
aS'd76bfc971c3bd3e5cb4ae921de882d87e767ee3ba5faf36707ba384fe3226f81'
p1899
aS'f8d9db5200d483df29d66b2c49544083ea6d1b63c08b31d3cb0adc484b22e10b'
p1900
aS'eba2ed48fa3f401678078c19f64c2475122a1db195b55748e063ea51fb52f898'
p1901
aS'2c4fb272b83fca092f8983a1b1557d1fa4407dd0eeb90b2234f80a0d37238ac1'
p1902
aS'9a1a0748f6b1042635b062f539053f3e9e3a794139f9d7c1babc4acd486d33e4'
p1903
aS'85df0e7898b7727daa0092d9623df19548751ed86e7087e70cd6075cb674b4f1'
p1904
aS'94990d17c6606fd40ac1108199dc1acc9b05c857df9c7b81dea2f34d9bb0f410'
p1905
aS'ae61b5b15037e5c11cbde505bc7f6a1328ae770b643806d0673ad180bda43826'
p1906
aS'afb3cc096994f172635db0d8115d96707a1e5693be35a8c63ca5c76de64ef0a3'
p1907
aS'eb0186818c978a79c73f3f01871a3e5868469f13b7d8b6dfae26074f4d9ffece'
p1908
aS'ee84cc78f0c5ddedee144bc6df05289425f660cda1791737e3653eaec767b908'
p1909
aS'8577696fa98ec207b4bbbd996eaa89b6d1fc5cbd828af1019bf95738f44f314f'
p1910
aS'f14a05c5aae7d87ca4f7fd2d5f70b15f9debb72f3e8219cdb1e6e67605b31302'
p1911
aS'8435dfb907a08246eae61a707f610c3c412ed1cc1798170ef0de06dfd4324a34'
p1912
aS'2d5eec0e6fa372107cb4f2372858d8225c5640c6710689a594bc5af22ab6fcc7'
p1913
aS'2527eac923c9cb3648b21e7c95ef51f4f3bbd6becfa9af46d7e28bd94a4e4683'
p1914
aS'7d872b5dc2d6604923c341b87053ccfaa7b27ddeec77e48e9f0911a7dbefbb8e'
p1915
aS'7889991c960f311bcc3347a4676cc0f1c7ec18196bd8f2ebe6b7c019508f2e46'
p1916
aS'5f5723cd20cde80277b26c9dce41c2ec93570aea693b6d0ca7d49f7f6ebee520'
p1917
aS'12b8f92fff43e4239bf34234c055d0a131843d52bd8f1f82f05556ac42ae0884'
p1918
aS'55744749094475ac02bc133066edaca2f25591220ef2453d17331b5d4f297930'
p1919
aS'7797e4c68ed63435a38515bcd391f3fac556a53fc587f507ba0bfc45f56fe953'
p1920
aS'c7cdc83a2a35595170a9c9e5e5fb399027d19e8b62b3faa5feb105f4a213e24f'
p1921
aS'ff256a19a444c1fb30b1d2f20844ac75c1c3bccb0e16f77d063cc2e3c3163645'
p1922
aS'fd8339e420e60bdd5dd83d532ed10fed8604a55cb7090015a29728db845ba90a'
p1923
aS'14d0fdff47accf9e739dc5ce57d915d7aab1ed275254db8ec0fecdf491e294e3'
p1924
aS'87147e563d96e46bd74f74ecdcf431ce7633dbfdebc04bcf2ed74164ad724dc8'
p1925
aS'89288a8f0e20ed6d188c86db35fb49a0e1c7284af59d11af080c0275740c9e07'
p1926
aS'4fad0d3db7fa5094b6297b6bf5e3eba6641ee012b56a36e333b3c786dd9a9016'
p1927
aS'8cdba0cc5d08f8bcd7fb4c657b4466bdb3caa7e39540197f13ff1b841bf064a8'
p1928
aS'7e101f9fb0c09b6db0fd24768a0a4637d2fabe9b0969905542036133128b2b28'
p1929
aS'64fd22b9747a5b3aea640de871e3853f9d71c411735e422da1873c6e59670df8'
p1930
aS'139653cb2d2db50321031e2e4781803308c54ed9fb6fe10d428ffcc08b054c7c'
p1931
aS'8876b69e5ae5c7d9df4f85df0716b3f7aa2de08e3db3f6fe5d1b3b5bad55f216'
p1932
aS'cc20f1e07def911c08b7492d2495d427f061c33465c17a8479324755579c45a8'
p1933
aS'7addcc078c00e6d5a2a7e9305a52085a1253e932c693389af6076bbb975534f9'
p1934
aS'6f6f0fb39655879dfb237802b7f644f4670ec4a7c571935bfd1fbe9f75230fe7'
p1935
aS'1763616a4699718ac39bd53554639ff99f4dbfa707f5ac2be278bc41b2db62ce'
p1936
aS'23339e7d85262791ff936de3ff4a2767766d45fbf6414200b73e735a0235701b'
p1937
aS'963644b0e6503378548e0dcba5d65d04b2ade1bde67c48284a8ed354f567885f'
p1938
aS'5652992b2e33d7106ded0f099f08ce54ceef8482721b2bcafcc1f9eea3278187'
p1939
aS'3ddbb2e01a7bb288f2c5b47be00814f261c971cd8cd83bd76e9dadfa3556898f'
p1940
aS'e2f1af49ad0a9d3dc9aca2f94e69b18a632b8104894e0a1ca7a45de8832c5b99'
p1941
aS'b73c77ec758004cc175e77581dfadc713bf588397a83c50408f80cc0af591f6f'
p1942
aS'903b8b448d37aa797f09e443ebed56a24980912cd19d9b67e0174cd1e84e8ade'
p1943
aS'39899387a95b6d67e4bd6d45674c0674ed4929a2197fbac5ee0a5ff226436a90'
p1944
aS'30ff66bdb396666d62ec68fca3a5c61ed617e04b7b754f888288b3cc31068ab1'
p1945
aS'f2e6f1499909f1711faa7f237d667d6c8e8093dcaba4c13fd92dd822f8004120'
p1946
aS'a15af770dfad53ef7e69347f4dece3b0740cd8350a335f3d0c57390155343e58'
p1947
aS'54c953752137564781f0101cb370164a17853010505d5287b9bbe1d65f944dfc'
p1948
aS'422b18a4292220a9e2466c2fcb778ece1c136983bc02a8a810d1d9c1d7c5fedb'
p1949
aS'435b652eafc4422e7d9219042e9add244634559f5aa0478fdf154f05672ca228'
p1950
aS'6c3e992bc8768f1225cff6a26b02e42923a55b4b975b3bf68c7888f53f2920b3'
p1951
aS'15169e17781cecf077806c5e64c1e60b2cfe479d26b2a276e3053a42b2e149cf'
p1952
aS'a0270bec2b88ff90890f02bdaf81c837bc94c610584f8c2c32ca114add07a375'
p1953
aS'65ac738b5399121ec89493a9ee7551e971aba34cde6b208574c992adb3bf0878'
p1954
aS'6576e0e3a38bac18cde9a3c11fb90ceaff13b978b54ab1f7ca9a559086ce9594'
p1955
aS'96766a72902c8dd573c566552d21d7c6000196917f06ec286088c1115e5ba301'
p1956
aS'cba2dd0d93458d667e1e9aaef0fd55f4bff2e1cdd6e408ea6eac897383376e41'
p1957
aS'c8cd2a157788dfd4b874809ac123ecc07b60dfc7f060aa03eb019d5a1671a8cb'
p1958
aS'd935175d61e5b6809f842707d9d51a4db9f3337d6dc1feb4965185883e1cad67'
p1959
aS'4c5802b31b65621ae1c99ebbcf09ecf2a9a209239e35530f19d3db1d01ea7004'
p1960
aS'b8d83577f067c07334bf96731197b2311fac08890e83430b813cd96a82f4ceec'
p1961
aS'74185eb3eddeefd31b31c36718fa8fe6aca038721deec2cf74a28273780f61e0'
p1962
aS'ce14cc7f715b6874e60236f4a6a6f7c9b2226d0b52e37ef8999ded8c820c30d5'
p1963
aS'bfb1e639cd2d8fd58da3fab2aac13692726b371f24cac428577b4f78d4296e78'
p1964
aS'44056022424d27d63bdbde854afd60f25188b1e79fb787f7595fda5e9c98b32e'
p1965
aS'7244321d4d7b9665e7d5dbbfb1d47be90c140c78dc98067fa92a1e80556f5abc'
p1966
aS'7a6e4801ffc2deee2fca644e27fd3820a7bf9a5b315ab3182587f2efd6396108'
p1967
aS'209518b0a0032a48200b07138253ac6e0281382d0665797ce8d07c17da53740b'
p1968
aS'b412b145e875690c9c3680030245dd50fce64d4b4f8c302be591322e2d87d556'
p1969
aS'0dd61fffd77e39353e679aaaf3d320899ffe15d93848dfbf807978381888bffc'
p1970
aS'254ba1d2f0c5cc469317baa4e95b36b514b404f826f5329e78eee84f30ca26bb'
p1971
aS'616758e2548446a7b8c716b440350187bd87082bc2bdcd39da5e98932ff932c1'
p1972
aS'e49b5a1febf0b455246dfe426fdd28537ec8f3ccd08439f285d18827ce008bf4'
p1973
aS'a977efe946b27dbb618d086dfcc235c0ec80626f7c974fab8fae6d57994d991b'
p1974
aS'be827057e7ac9a2dcc3f58504749ad239d19699b66fb6408b500c0b01ea91890'
p1975
aS'55609f16ed3fd5e32f80d8e43afb7f0809f3d49b23c54e7d741bc0aaf6321c3d'
p1976
aS'1b691ebd825d18be4946b4025a272fced6755268547e3591b02068b7d07cb4b3'
p1977
aS'ea57a91121a512906aafb7f62fd9050d4907b2c3d7e005d380ca975a9b32f370'
p1978
aS'c02150e3851bb169c440be6455d8bbd5d492b0ec3ef9593534c84c94f0080cc1'
p1979
aS'baf8d77afbbeada6a0552c4900ee9cd2d1970fcc0475ffdebe24001db8691ed7'
p1980
aS'efe2e5112107d7f5b64bd39bcc45dd024a183cfacf4d0fe4f209b90249056d1c'
p1981
aS'6bfdf9838889660a2ab093f1d57d748d3f3b47e117353f21dbc24b5458403613'
p1982
aS'eb249285d155f7771bbd461b74d36d8add88d7666bb17ac038a3690773c5ef64'
p1983
aS'60cd1758bb8ccff18b25ebf679ab914b867cca9718ff2a3c5e41e6ee8787ddb0'
p1984
aS'772c9cf5f37737828a3c72a1a950fac70d0452cfabd4855602cf64ed8f2b2bf5'
p1985
aS'9d3e04ada6ce75c9f1fd1e5650795709056cd9982018c24460cda28e73d7a515'
p1986
aS'73e20d170be2e557cd20abd8950255b2245e611f32b5bfb3681a1ea75aabd316'
p1987
aS'b296c2f7e33233cc728f2970fc1cdab83840f8eb85d09ca7f693d1974349ec92'
p1988
aS'e9dcc7c3788a4ebb93fb5a5b64db6ad9297587073ab49678dac69b07f394e65a'
p1989
aS'1afb4baf4282c92dd86bf02b6d23e37741941ddcd78dc3df7d33edd35f7adba8'
p1990
aS'daef49d9a949fb6037e240210bc30a02839d705de7aa48fd4406d7d84f61186c'
p1991
aS'90a6515a7eb9afecc53eacf036d6d19fb8522a3563df12bbaab338187cb0ca8f'
p1992
aS'1e4ebf923c274d1d579f41adbf4691d798f7fbaae033e3cd43e7bde05f60b2de'
p1993
aS'f1e4ae0598a8daa53727fab6d5c2cea810f403c36d05f6d917f3320ede26e054'
p1994
aS'6c44118cbb1c7b7ebb40f3fa59696f3fdc7ff9b1f0df61a6f213d8710f4fd2f6'
p1995
aS'b8334ef6b53a644fb5eaf90f9de8eda20962a701db7206bc9b5a4255bc3d80cb'
p1996
aS'81b418fe1e660199d2519a2c878b63b64d8fddcf190df90a1d0acbb1ea1a167b'
p1997
aS'eac1821d610a5737985df9f82770cfd1ad076fbce41f5adb94097d41c615ffc2'
p1998
aS'5d8157502a887df3a86b9769cf1232b4812ca18897066bcebf34d23b8407a433'
p1999
aS'07a16b6967196118e3baa4a76789eb7a16cd78b211e2ead4d796a888b2a9b6ba'
p2000
aS'f4ec388a24b69c81e8006250e911b0984eaa1d94e32ec3fc7e525402d942c896'
p2001
aS'914a387f0a235e7ddecd1a0abb7afcdc2be111fca032c848e7065cd87ace9468'
p2002
aS'0ea9e5a7bb00f40b6a4c9a5379462e85463d896fb8fe04da26e7687815516e5f'
p2003
aS'dc7398307c86a1c6b2f64c14bc6d3a0029834299e76bfbd3711bc50e87492a96'
p2004
aS'ce6e4ddd3a797f1c120e16e240183decb21322e1326032a4de78a3e4058d814f'
p2005
aS'876192e38095ad9ff62ef23c0fa018381c33787f0d6bd4de3caef76b27413f69'
p2006
aS'08822b7bec4786fbddea4f52e69159bfc707f3847dfd82191d22db60028a531a'
p2007
aS'81582605692e6d9883b331f5113291827fde3d8c296bdaa909245bf1ee3cddfd'
p2008
aS'5891a0be7bc59eb7582e43e3d3bd92bb332543113c993f79f139e558774e30b6'
p2009
aS'2da5a05815aa965ffc5e70be26a61b51a451f6072964889c7bc01b8bdb68dfcb'
p2010
aS'8c3781bb1bd6441463a4d94cb075321fe7c64fd2967107a15321716efde308a3'
p2011
aS'44e93d68ef080f5641402289e1bcac1e0459f28ee12eb4cd2783a8ccc4adb54f'
p2012
aS'7723475334be80651ad3d3dd9fd4faf0f00c433d859e4c1d76c57eabca92f3e2'
p2013
aS'a1730cfa75aece3b1b21f5928422817c84cb13d33885fb5eaad6b3d02dba3055'
p2014
aS'64bac92e2097cadd84989c7799f57edb72824acb2795c14b3f21558ea56dd336'
p2015
aS'856ae22f337bc57271535d5209d12575743a7a65e6c6f2faa7a15edec3b8dd1b'
p2016
aS'4f00ad12067bb77c7186ef1e3b37a0f973425dc9569872dac39c36d6fdf3b706'
p2017
aS'74ec36e66fa3107b819cc041e8971d0dbec61cf0df60e956c0be81125589e7b4'
p2018
aS'1b17661feb1d464d82b9a960fa51018f713f5b61c3efc5edf2ce7433f174a520'
p2019
aS'99410982228b30611319b171744c504fceb494f0020930a8644dd76d47bca03b'
p2020
aS'aec6220bdc79e15476b213d749554bcf241e3456c53ccaa65b1f71fb8f8da03e'
p2021
aS'2dcbcb4a88f2d31cadca7d133aca261a044d337a61a5a2ba1d41f2bc11b857a5'
p2022
aS'b63be95a9375271a345afc21ecb26fb00032ceef966e419b6442d7defef9cada'
p2023
aS'21d1bb50a90b37a69db511fd371eedb0412081f4f6c8b9b26c47f62d667d4434'
p2024
aS'c2c10883ca940771462d076c2a2c3c636a230440ef45edcbab09dfa22bd43ffd'
p2025
aS'af5c18185dae6c2c1d5523efc696c662a7fbe1e1d71d2288ee721e48519fde28'
p2026
aS'd8d12ee3d868c899dcb8d9c15525d5335b69b7a07b1d8cfdcdb7d220e156f145'
p2027
aS'77d6987a2cacdb74adc04ab89c26307e9a82fb7ecaed8d77ff7b5cdcb3cfcee4'
p2028
aS'f6cf2a65a01b0c861652401d894cb34ee4d39387a518d0c84380a8263a8b5525'
p2029
aS'0f483c5ba370496dd712878aa2d39d187f7ed920eaf29fb48bf87cf69b92319b'
p2030
aS'04d1dda5abd1daf9bdd9d79fc5ef90686896f68c35fff219eeb0ed1f1c8e5549'
p2031
aS'1b93b99c4cd8a8a2047b36505ccf9f5ce09967e74f78922c172903f0eb1c7953'
p2032
aS'53d1b651aca9b87eb0c6e6fd0bd0f7ca4ab36afb0a86ea9114208697440f916a'
p2033
aS'1b172d60de2be891a4d4a74577e0aee9c2a3babe8817cebb57c0fb0b8a90678b'
p2034
aS'bbb808365518362117cb15358aaf0778d572bf9ab01bc8502ef57ac66aa8252d'
p2035
aS'0f65d18dc9c798a965eb5d9a3cfa643a52e8058957654fcd2072135a81ef08f8'
p2036
aS'54582b0bf1c6e3fcf8c10a524bef2064645e8cd03fb7d9d3b949de9f09adb820'
p2037
aS'2b422eda8c5c7edd311d680b059fff3ef3ccd0ba4b51df85b721a5d00355562b'
p2038
aS'4664bd3db2c1e8d253ef1cafe2c535271067c1cb20da274dcc35f9f1a374d2be'
p2039
aS'24adcc17111bbc27da85cb99241f266b0161dbad376255bff2bc4f26af30e662'
p2040
aS'51e60bcdcaee1c3d406ae23b0e4e78835bc2820157c2d3d19ffe92f71ed02731'
p2041
aS'8cefe76392861dc68955445ccfc9900a3c4dfe2d720679eb08a9b73a66bda0f7'
p2042
aS'22c18bc790997ef55834dcfd914228c9bae1fda0944fc828578e6f9fd64d4276'
p2043
aS'1ea0458d6e874d0e36b040f4bc2440e72e0a4b2830b9f644e1226ae98275e827'
p2044
aS'2f404b72eabb2c6d46be3fa6d79569eea6aeba42ea8e5861af9517b12a02d54e'
p2045
aS'2cdc4446978fbfdf4e0c4c50b80bcc603f80f9b7b14ff0b8d1ed8644e0ef93ca'
p2046
aS'1091fdccc2c6fa3db718ac2c2dfe56e8d00e433ce7367c29195ab3cddf0c2b79'
p2047
aS'7e4348ec3c9a977b201e0e8420dba17ce10de46b10621c2a00049cc5c6bbec98'
p2048
aS'a6c4305d147615528a28b2ef3eb40772101d76a48f4b1d6d205dacbbc24990de'
p2049
aS'1d6cc2e8142eda4753164f345a6f0a628afc5727223d0f3c20ec8c0af9342ee5'
p2050
aS'3a0105bc60ca349686646614d81649c0be964bf6a87749bcfc051ad0aca24242'
p2051
aS'f1604c3f58c4427275d9a252824d8fa90c57cd51779a5f77124aead08631405e'
p2052
aS'7249a8d208697cbb050512e45a38a747eb685e7621e315631d05410508b56d47'
p2053
aS'f422e2fd1663289a9aaec0bb579fd78377fd103e2d2750270fa3d3478c7a22e7'
p2054
aS'e44fd67784b6719929121dd86ba6678b9b8fa7adda54216c481c9c0f098f619e'
p2055
aS'ac3d9e810925af5940cfd7ad0e4484da618cc2d765b9dd1ee1c1f49e0c05799b'
p2056
aS'45c075033b06b2d64231bd62ba7f1d5cc86b5c2243e7661414dd1abbfd8f876c'
p2057
aS'ff57008aa3fe9a64a3e916d1e75999c322c11ba7019d2f37f3e38ac34144a716'
p2058
aS'5fac93030c81eef9a59e63770ee7b4e38f6406a6ad3c5243b5dac15af4d4c283'
p2059
aS'7e9f1d9cee4a639dbd27751e39434b72bd648b0abbb60a3b186b8484fc14b4bc'
p2060
aS'85c6040bd46c40757f870beb63de1a1e1b28e0b120f8290f2637699312960bef'
p2061
aS'0fb939084829de5ebabb69c3bc7e50a3f39f8efea1113b84013f7bb2c7f86034'
p2062
aS'cfd9b16c252b6e7ce9c6ed03a9ad0a58a45b726e283584b14d546fbb3a8a83e7'
p2063
aS'a7aed739fe71c2929906c275a80251a9611db0e2ea63ae9b9ad589f4f5bf136d'
p2064
aS'42fbdd1db501d313462d790100d9bf89b200ccc2b0371f7dfdde0af8ccda3e9f'
p2065
aS'05c0083a9f49b91a98a6b52ac8996c59416da9fdaa7e830b16cae9e73fbb10d8'
p2066
aS'04d67ddacdff89d2316c71a006e57e0e8465178f1643a0194ee81c03326adbdc'
p2067
aS'09cdcdda89e95c75dba3c948a7a12333f528766babc5e41c7105f1bd1916678d'
p2068
aS'1c788982a1c5c514cc7f2589f460a52a9b3d63d413a7b605059f0397c1f02913'
p2069
aS'6ddd7e778082980f723eaaebb153b3559e01571da8575b7866c455123b682505'
p2070
aS'a296e606dc34a8bbdbc8354ccb2e1b54fb7e6f397efe450c1ba9aeaf86103442'
p2071
aS'45a4a5012a81618a921f9eb4ff038e5d7b39c65038d526d7bdc9f4aa47f59711'
p2072
aS'18bf840e4db47648045fe7a8fb8736ee04a409d52ed1611ee701507ef68d1a56'
p2073
aS'de1b7e3d6259cb1bd5571d84c1b1fd23e6fab8c78ba3aac7cd56a50cc26af703'
p2074
aS'dd0f363f8c5cb783969508733bc3ee9d32c3b1f9db5b2a0e328cc1a5731189da'
p2075
aS'afc3331e62cf3be39b27e9bd31c2918475dec91fdaa82607230c89e9dcb4e413'
p2076
aS'c1188b1b14c7c70ef7a7753b76172626edf68f98791b2f8c0de91f1a33b0c255'
p2077
aS'99b9b610e4d21679b5279bb53a6eb384d3abd3866a0dac2fdec534694a505907'
p2078
aS'02264eeb22f5e4e8cde2e06d41e47bdee81be3fb8116c18be857c1fde67bdc29'
p2079
aS'41f5e4bf763ef30e341a994242a837f3a620f9eaa665d503e6ab1db76f2ceb30'
p2080
aS'1c2f5c546ec6511d0c7ed9c97c114520813d00ca21b864576f9215af36c4d9be'
p2081
aS'a6a3614f3e2802ea2677e7bb50e46c98b3edb34d3c3898b8b11b687fc8205085'
p2082
aS'cdfb19f3dfbf96055c7f09bdf8666f9bb7516562029245f2e9f1b9ae747afb69'
p2083
aS'8e1708af5df851360c728061955b744a50dcb4ff7023e83a1a5d95eeed7e29eb'
p2084
aS'5b93f52242faad3c9e2a1ac19151b4ba21b6ceb752163c4004dd1ecb11ee47d6'
p2085
aS'52d972af9e4cf94f57e3a2145354152f554746c9f4d396664d39e3926a34c5c5'
p2086
aS'1662d9f2c7c7fa2e6e6d2af73acc9a2f30c556d6bbd2cad93399a4bfbd818df4'
p2087
aS'5ceac83d33a6fadb894d27d75e6761e6abe798bc6fb7ea568f5f882a64452397'
p2088
aS'c4ae055d32c071113489cab39f7b239a48044f657efe99ea2f7dfe70ffef5b8c'
p2089
aS'be5084f92ed32f98d6d55af985cc3511dbea2bc8a5e6f59b08ee2c1f149cbf90'
p2090
aS'32c53ee0a09ad492e7704d7f5805b61ba0a7f91ca0ef89f3b92f6b4958509285'
p2091
aS'ca28fd6d4a5ff20809e8d7c09d1b8d1ec101d75e9b896ddcc9413474acf560bb'
p2092
aS'2a458f60e3ce21147dada674de20b7ffa2d999e731441bb3e6c0296f7f27c246'
p2093
aS'64fc20dd34cd568d6035e010e61b12655b0567cdd2bab5f168cbb251fac5584b'
p2094
aS'dce9813c9027bf418e0acdaa12aa15869b963e012a9b0824131f907aaee51323'
p2095
aS'89773cbdae78bb833e014b32508688ce44cd554392d0b271a6551eefaa603723'
p2096
aS'070f2eec909c6a7d3d65befee83f5be0bb076622944a98ec6d18ad2f16d52fb8'
p2097
aS'dc3f66b0ae4b920a9256c6c9ac39bcd0db747bfa6271062d2f5498598c34b0f3'
p2098
aS'5e7c06a7c645f38c1408571c2d336fc8475294f8cfe80bbfa714cf17ec6a39db'
p2099
aS'f3a24466ecc53289bc9c8828baabd574301d220318df9ef1724a93fa3343ccb9'
p2100
aS'043174e95bf883729ac72bd782f2715ca0a0f0434b29584afb946ab10112264e'
p2101
aS'646f1db1835103f6aeaa99b5bd2661452d097a5db07799508dca253ece14c041'
p2102
aS'84e5ddbe981815788f3e11a602cb0adf2adce9c322a8a159a11caa361e9afddb'
p2103
aS'43c3cd1e6e730c3d25adf0f2ba78eab24955584dacfbb7f89599a51f872a71b5'
p2104
aS'306319e9432260e3298b49af99b58a31be68353a8d2da72d57d322d7741b1b1e'
p2105
aS'158932936fb2a05817b89b1889d7f68fe664dd8f8239eaa6f0817f7b686834ce'
p2106
aS'5ed721c3665a292a6306dc551a4eb0d1eb1189fed65c53b9b6642e027006c884'
p2107
aS'90783e14db68b101daf4131a2ad9e1e06da67635c7a0ca62d08d43a3e2ef45c0'
p2108
aS'e950409c8fb71b474143ac7e7b9005d15a52b640bf7911c8bc49702c9b5b0b00'
p2109
aS'df164627605905e47f735449b498b68b6be763f94bf6dd7f32cdcca321693a8d'
p2110
aS'222c8204c74cd733cb8074f53f9fa9c3f4dfae8e0d8aa8a20dc0cfa0162a8022'
p2111
aS'c0affc638962d963e3fed68e63f6e7a48c72d06fd1f34cca0b5b4a612b09dbdf'
p2112
aS'de44c7ba28256773f103dcd71774b36e4dc352a2fe5c382e436031e997f349a8'
p2113
aS'd25ee2e28db2b6696c2b299ecd2549b19b0887e4e54787c3fcf659880af770dc'
p2114
aS'cf05c04114464ef6534569793dad63f958f4c1f99bef05b6bd289225e18f8f2d'
p2115
aS'04731bd5b75c3c1a1b1f6a0f1621f8a183226c538ee184c26c022888d54f63ac'
p2116
aS'180187c4926d523f164bd0e8561886c13f6c31ad652d5abb1f62b00cd0597473'
p2117
aS'85b7791b4e6788348171ea250b8bf6b9beca2a1fc146513583af015a11687cb2'
p2118
aS'2d842d98119209410dca50e7f7669982e8ed663f269bd562e6091a64f3f064fe'
p2119
aS'1b9e549604b449cc0578b4527e8bc17473c6e61263e2dd5816235661edb1feb5'
p2120
aS'b95a830297fa1c8211cfa1e7b9537ee1403b9c57db1eab810a561b579185868e'
p2121
aS'6d983da826dd0b351d3ad7448ef177ec88004e4d013338de3bfcba685cb1eca7'
p2122
aS'e485b63eb369efd299c9f05d5f041197069a28fea9c35cf2861c8b5974cfde44'
p2123
aS'5c0027c2655791c5b84a7c38ae32f29ca98fecd77c94140813073385c451680f'
p2124
aS'401b018c0e9707b8e54176afa0e7f89499946cf7658f1bebd57dd10e8c93614b'
p2125
aS'8924d33d6a3336291b204e364018fa5981c2684fa5e5968fb712d102a8646282'
p2126
aS'f1db930754fb075945ca7e99b5278499f6c40ae1c78bda726a4d528b6979de44'
p2127
aS'55e66af2ebb8e054442d6318b43ec579302b1c3cbf49c49dc20f276cfa256e5d'
p2128
aS'08193df97653219b4cb76ddccc097462e18be11ef9f5a60cd873aa25935eecda'
p2129
aS'cfd59cfc22d2392ad679dd6293ff39606ddf3852e5b7996c6da93eca1de0b6a5'
p2130
aS'b4827edbda88f8d8084f1536991f5e152ea7484b0f9600c286d6c9ca922e888b'
p2131
aS'0e97ee7fda4efc69ae97635ace6f16ec21621f6b134f47f285a2e0147396c140'
p2132
aS'4a3bc7f189963bdb44f7d98569e05e88638ef9a66be44aa909555a393bf92d54'
p2133
aS'158e5814a13c162f2b1a3c6c9f12057e1301b4b4b8a54e021745feea56e588a9'
p2134
aS'c8fb517c2ab99acec6d2e799ef98f356cdf51a26d7aacce34a4c00044d295e21'
p2135
aS'63102eccc49d00c535bfcc67f5373f8b436dfaf38ba5471e8dd053b60db2a6cc'
p2136
aS'43a9f9188ebe73e6bec65a3e728d9e29687be1d9c5eb10075431006c15fc01a3'
p2137
aS'3fb7f41fa4beaba67e5574ed609199e27f6bb30cf97328432467ad08c3d0c33b'
p2138
aS'7a36d901676819e6b9e88e7ffc0744f2d5590d0308d9a1f5aea6515f3d59dc25'
p2139
aS'a1da3a21f34a13651b2fc992472cf8fabe9896a3d8aeeb87e5c0879f2f5bf4ad'
p2140
aS'118ad0f13894eaa2df0b36c1ae4ff0dc5a2fec72c35577e0821722fc1d333632'
p2141
aS'3083860799d7c1d562f0a2fe08111ebf13660be58ddb342025fcfd267555cbc5'
p2142
aS'0db753bef66c5f02ea5727a84fa32beff48b2fd68e661db8c4f2204a575752b7'
p2143
aS'3f7a645bee02a365c7298ce58821df03373497f5a7a7bb88ddc9cfd383024376'
p2144
aS'6559da3bd123e98347a26e8ee8dc48df71eddce0529c539923bcc0b60f8a99c9'
p2145
aS'0fec6a2f7cac49efcc69d6cebf2f84b9c96cbc5153edf0a5252959e934a7ddbb'
p2146
aS'f42707c248ca8a3ff22392a5ee58ec924d3f37bae88869468c20e781d1929e2a'
p2147
aS'22887877e81100584a2b004a1d6d3637219286be6e5a04e0189fc018e589650a'
p2148
aS'8318e8da15e9532e11fd910b9f64b1f671225902d527ecf1865ff0482ff41455'
p2149
aS'24ff89e1e19a8cc39ccbf1554c7276ec55da64961782b0461a5fe1715e1512de'
p2150
aS'623ade2119dc538a910930a97eedcf844b66bd3a113fe7d7a1fcd224821a9a65'
p2151
aS'c518c2c95fa6332b753a6fa6689b417769777e4cfd5ed70d0f28930a98f64351'
p2152
aS'8f8f5c02fc984588399712d7a895c601b50f136ad278c565a9d5b64115462b2c'
p2153
aS'82dfd514d4beee99f360f094debe2cc22d0f6a54a3ec17d179f9e6350240bced'
p2154
aS'1a6098a7779f47351efad5a068deb9ce1fe96b9a906bd036906e636e30985aa5'
p2155
aS'fa46a558dc9311d1bc65493e0697de1a9c7f8c895260cf646f90a6da11e5bc00'
p2156
aS'8251d4f8ed56a1457edfbb3d641df8f12c2f9e6f14db3b5b8e11826a4c054cb1'
p2157
aS'a0bc8c9b374b9b3a15796c3ce6a156ff841c4b12bd0d93e46de5f8033a72fe42'
p2158
aS'52031fb4eec1c94313256c0b6e6d4eb0c43d813c55e2efe0d0616c52b40dd5dd'
p2159
aS'17344a8d200f3412f42764df2f09fe1c5488a853b2eccb80153ae9af4546899e'
p2160
aS'c8f211c52955c0c10bb095dbd55638b935d4df67a23c4adecf16ae44a0125b6b'
p2161
aS'121eb14bf01e97caeb9ef5924d00a2f0b25a7c49ba386ab4baa72b2ff7584661'
p2162
aS'df29190e956bdfef562079d70db990465eb56e31a73cde3bfe9aa6fa1ca2969d'
p2163
aS'b4579d2d547ef3140958e628a22c5ae5a37380cf95d32d625d44b3fabcc16b95'
p2164
aS'6b8b9cffe6cd36d3d377799bafa70c09444df6ca7fdfc716e07602d24e283df2'
p2165
aS'67664ee2a717e784705e001d2b0babf54c8bbeefce361f8c77f41ac045f0a833'
p2166
aS'd00b1c6cbf9452c176875c722085d853c104c6757f07ee5cd1941bb4c8bf3f3d'
p2167
aS'b8a6416016a7ee8e1680531777b425a2edbccdbe66ca08d1e134c6da06a99b0d'
p2168
aS'49674aebe24c2a0fe1def11499ae36e354525be5d8b923f9a6456a99b50783f5'
p2169
aS'86a4b03b9660b66609e7b45faa74abdff766e0ec6ca5bb1366f53a466d0b9996'
p2170
aS'3576f3f17a86774cf6b9549f47106540b7b5c43dcb65e181eaf80cd2ac7d376a'
p2171
aS'984c192697f7c4df883524eeee6c180c2ee513b56f8879df2a1ca668e5a389a6'
p2172
aS'644635d9cebfd696dd0e71eefce400ac744713b846ef3fb2df8268a1b48cd4cc'
p2173
aS'61bc172103c8a41553e02cd0e0a1536ca846c35bb522a415429f4db2e123a797'
p2174
aS'acb27dc383c437c3abba5c8f20948f9dacb5dbb2926ca55e2e9ccff402fbd421'
p2175
aS'7ebe3d432b913975da9142bb98cab34416316007aec5ab737e6e0090a7e04d2e'
p2176
aS'1282765c26cc9d4b5437be7d02d3c977d4386ab9e4ff45726df6723d8f310cde'
p2177
aS'89ab5e7ff375a7a1f8d1736232fe268e3dc0fd2e64ece6b0f873f6bef5692286'
p2178
aS'2cbeae7a16b3ef9bf04a4d5fbd64ec1067cd33a64574f38f6eda7e533859f4af'
p2179
aS'd31ef2c140968a734654e7417ac31b9cfafc684f1e39b87b42c3d44222dc6c77'
p2180
aS'c8a93adda68a732f8e30d90e287b18197fe7436e9d0f303273478b6ac234d130'
p2181
aS'3e21f1b86cbfe3bbe8f9702b3dd53c386bdc1c43d2b0d9a963469a2b6bb61e55'
p2182
aS'212be9330c44d3b52520a868ef3c48b57f9ececc01beb84388e1c57199d36234'
p2183
a.