(dp0
S'VirusShare_5e66d131ef6f202ff0f26120d49c9f5a'
p1
(lp2
I24
aI0
aI0
aI0
aI0
aI2
aI0
aI0
aI0
aI0
aI0
aI0
aI0
aI0
aI0
aI0
aI0
aI23
aI0
aI0
aI0
aI1
aI1
aI0
aI5426
aI35
aI0
aI0
aI0
aI0
aI0
aI0
aI0
aI0
aI0
aI0
aI0
aI0
aI0
aI0
aI0
aI0
aI0
aI0
aI0
aI0
aI0
aI1
aI0
aI0
aI0
aI0
aI0
aI0
aI0
aI0
aI0
aI0
aI0
aI0
aI0
aI1
aI0
aI1
aI0
aI0
aI1
aI5
aI0
aI0
aI0
aI0
aI0
aI0
aI0
aI0
aI0
aI0
aI1
aI0
aI1
aI0
aI0
aI42929
aI0
aI42929
aI0
aI0
aI0
aI0
aI0
aI0
aI43554
aI1
aI1
aI0
aI0
aI43
aI35
aI53
aI50
aI69
aI55
aI0
aI179
aI0
aI8
aI0
aI43628
aI0
aI0
aI0
aI0
aI0
aI0
aI0
aI0
aI6
aI0
aI0
aI0
aI0
aI1
aI0
aI0
aI0
aI0
aI0
aI0
aI6
aI1
aI0
aI11
aI0
asS'VirusShare_33c5ee46fbd327553710c2b3ffe5f1a7'
p3
(lp4
I155
aI0
aI0
aI1
aI0
aI2
aI0
aI0
aI0
aI0
aI0
aI0
aI0
aI0
aI0
aI0
aI0
aI21
aI0
aI0
aI0
aI1
aI0
aI0
aI1360
aI31
aI0
aI0
aI0
aI0
aI2
aI0
aI0
aI0
aI0
aI0
aI0
aI0
aI0
aI0
aI0
aI0
aI0
aI2
aI0
aI0
aI0
aI1
aI0
aI0
aI0
aI0
aI0
aI0
aI0
aI0
aI0
aI0
aI0
aI0
aI0
aI2
aI0
aI1
aI2
aI0
aI1
aI5
aI0
aI0
aI1
aI0
aI0
aI0
aI0
aI0
aI0
aI0
aI2
aI0
aI1
aI0
aI61
aI72
aI0
aI11633
aI0
aI0
aI0
aI0
aI0
aI1
aI12382
aI1
aI1
aI31
aI0
aI34
aI31
aI61
aI44
aI130
aI72
aI0
aI204
aI0
aI9
aI0
aI12526
aI0
aI0
aI0
aI0
aI0
aI0
aI0
aI0
aI6
aI0
aI0
aI0
aI0
aI1
aI0
aI0
aI0
aI0
aI0
aI0
aI6
aI2
aI0
aI11
aI1
asS'VirusShare_0b3cfd071858d529fb0c345907348a47'
p5
(lp6
I24
aI0
aI31
aI0
aI1
aI0
aI2
aI0
aI0
aI0
aI0
aI0
aI0
aI0
aI0
aI0
aI0
aI0
aI23
aI0
aI0
aI0
aI1
aI0
aI0
aI1190
aI0
aI0
aI0
aI0
aI0
aI0
aI0
aI0
aI0
aI0
aI0
aI0
aI0
aI0
aI0
aI0
aI0
aI0
aI0
aI0
aI0
aI0
aI1
aI0
aI0
aI0
aI0
aI0
aI0
aI0
aI0
aI0
aI0
aI0
aI0
aI0
aI0
aI2
aI0
aI1
aI2
aI0
aI1
aI5
aI0
aI0
aI0
aI0
aI0
aI0
aI0
aI0
aI0
aI2
aI0
aI1
aI0
aI51
aI12374
aI0
aI12374
aI0
aI0
aI0
aI0
aI0
aI0
aI13288
aI1
aI1
aI49
aI31
aI55
aI51
aI69
aI56
aI108
aI90
aI0
aI179
aI0
aI11
aI0
aI13362
aI0
aI0
aI0
aI0
aI0
aI0
aI0
aI6
aI0
aI0
aI0
aI0
aI1
aI0
aI0
aI0
aI0
aI0
aI0
aI6
aI2
aI0
aI11
aI1
asS'VirusShare_0e9f57960435e282599acca0660e516b'
p7
(lp8
I155
aI0
aI0
aI1
aI0
aI2
aI0
aI0
aI0
aI0
aI0
aI0
aI0
aI0
aI0
aI0
aI0
aI21
aI0
aI0
aI0
aI1
aI0
aI0
aI6038
aI31
aI0
aI0
aI0
aI0
aI2
aI0
aI0
aI0
aI0
aI0
aI0
aI0
aI0
aI0
aI0
aI0
aI0
aI2
aI0
aI0
aI0
aI1
aI0
aI0
aI0
aI0
aI0
aI0
aI0
aI0
aI0
aI0
aI0
aI0
aI0
aI2
aI0
aI1
aI2
aI0
aI1
aI5
aI0
aI0
aI1
aI0
aI0
aI0
aI0
aI0
aI0
aI0
aI2
aI0
aI1
aI0
aI61
aI72
aI0
aI53717
aI0
aI0
aI0
aI0
aI0
aI1
aI62194
aI1
aI1
aI31
aI0
aI34
aI31
aI61
aI44
aI130
aI72
aI0
aI223
aI0
aI9
aI0
aI62338
aI0
aI0
aI0
aI0
aI0
aI0
aI0
aI0
aI6
aI0
aI0
aI0
aI0
aI1
aI0
aI0
aI0
aI0
aI0
aI0
aI6
aI2
aI0
aI11
aI1
asS'VirusShare_1e234ed5dac1b63b885837c532d2695e'
p9
(lp10
I24
aI0
aI31
aI0
aI1
aI0
aI2
aI0
aI0
aI0
aI0
aI0
aI0
aI0
aI0
aI0
aI0
aI0
aI23
aI0
aI0
aI0
aI1
aI0
aI0
aI7530
aI0
aI0
aI0
aI0
aI0
aI0
aI0
aI0
aI0
aI0
aI0
aI0
aI0
aI0
aI0
aI0
aI0
aI0
aI0
aI0
aI0
aI0
aI1
aI0
aI0
aI0
aI0
aI0
aI0
aI0
aI0
aI0
aI0
aI0
aI0
aI0
aI0
aI2
aI0
aI1
aI2
aI0
aI1
aI5
aI0
aI0
aI0
aI0
aI0
aI0
aI0
aI0
aI0
aI2
aI0
aI1
aI0
aI51
aI89523
aI0
aI89523
aI0
aI0
aI0
aI0
aI0
aI0
aI90562
aI1
aI1
aI51
aI49
aI56
aI55
aI90
aI69
aI121
aI108
aI0
aI179
aI0
aI12
aI0
aI90636
aI0
aI0
aI0
aI0
aI0
aI0
aI0
aI6
aI0
aI0
aI0
aI0
aI1
aI0
aI0
aI0
aI0
aI0
aI0
aI6
aI2
aI0
aI11
aI1
asS'VirusShare_1e540e9e04b2a741a60b17e1dafb5258'
p11
(lp12
I24
aI0
aI0
aI0
aI0
aI2
aI0
aI0
aI0
aI0
aI0
aI0
aI0
aI0
aI0
aI0
aI0
aI23
aI0
aI0
aI0
aI1
aI1
aI0
aI1463
aI42
aI0
aI0
aI0
aI0
aI0
aI0
aI0
aI0
aI0
aI0
aI0
aI0
aI0
aI0
aI0
aI0
aI0
aI0
aI0
aI0
aI0
aI1
aI0
aI0
aI0
aI0
aI0
aI0
aI0
aI0
aI0
aI0
aI0
aI0
aI0
aI1
aI0
aI1
aI0
aI0
aI1
aI5
aI0
aI0
aI0
aI0
aI0
aI0
aI0
aI0
aI0
aI0
aI1
aI0
aI1
aI0
aI0
aI11222
aI0
aI11222
aI0
aI0
aI0
aI0
aI0
aI0
aI11849
aI1
aI1
aI0
aI0
aI43
aI42
aI50
aI50
aI69
aI55
aI0
aI177
aI0
aI8
aI0
aI11923
aI0
aI0
aI0
aI0
aI0
aI0
aI0
aI0
aI6
aI0
aI0
aI0
aI0
aI1
aI0
aI0
aI0
aI0
aI0
aI0
aI6
aI1
aI0
aI11
aI0
asS'VirusShare_0a8785f08f5245bf603d9affe32de807'
p13
(lp14
I23
aI0
aI49
aI0
aI0
aI0
aI2
aI0
aI0
aI0
aI0
aI0
aI0
aI0
aI0
aI0
aI0
aI0
aI22
aI0
aI0
aI0
aI1
aI0
aI0
aI30430
aI0
aI0
aI0
aI0
aI0
aI6
aI0
aI0
aI0
aI0
aI0
aI0
aI0
aI0
aI0
aI0
aI0
aI0
aI6
aI0
aI16
aI0
aI1
aI0
aI0
aI0
aI0
aI0
aI0
aI0
aI0
aI0
aI90
aI84
aI2
aI0
aI0
aI8
aI0
aI1
aI0
aI0
aI1
aI441
aI0
aI0
aI0
aI0
aI0
aI0
aI0
aI4
aI0
aI1
aI0
aI1
aI23
aI380
aI380
aI0
aI264147
aI0
aI0
aI0
aI0
aI0
aI0
aI241583
aI1
aI1
aI380
aI380
aI5665
aI2171
aI28070
aI13421
aI131129
aI91505
aI0
aI131129
aI0
aI22
aI0
aI243036
aI0
aI0
aI0
aI0
aI0
aI0
aI0
aI5
aI0
aI0
aI0
aI0
aI0
aI0
aI0
aI0
aI0
aI0
aI0
aI5
aI8
aI3
aI469
aI0
asS'VirusShare_1d05c8453377cb8d61c8e9a7e242dc9d'
p15
(lp16
I155
aI0
aI0
aI1
aI0
aI2
aI0
aI0
aI0
aI0
aI0
aI0
aI0
aI0
aI0
aI0
aI0
aI21
aI0
aI0
aI0
aI1
aI0
aI0
aI1313
aI31
aI0
aI0
aI0
aI0
aI2
aI0
aI0
aI0
aI0
aI0
aI0
aI0
aI0
aI0
aI0
aI0
aI0
aI2
aI0
aI0
aI0
aI1
aI0
aI0
aI0
aI0
aI0
aI0
aI0
aI0
aI0
aI0
aI0
aI0
aI0
aI2
aI0
aI1
aI2
aI0
aI1
aI5
aI0
aI0
aI1
aI0
aI0
aI0
aI0
aI0
aI0
aI0
aI2
aI0
aI1
aI0
aI61
aI72
aI0
aI11216
aI0
aI0
aI0
aI0
aI0
aI1
aI11957
aI1
aI1
aI31
aI0
aI34
aI31
aI61
aI44
aI130
aI72
aI0
aI204
aI0
aI9
aI0
aI12101
aI0
aI0
aI0
aI0
aI0
aI0
aI0
aI0
aI6
aI0
aI0
aI0
aI0
aI1
aI0
aI0
aI0
aI0
aI0
aI0
aI6
aI2
aI0
aI11
aI1
asS'VirusShare_988ff0dbb0af4e94b65c1ffaa537d006'
p17
(lp18
I12
aI0
aI20
aI0
aI1
aI0
aI2
aI0
aI0
aI0
aI0
aI0
aI0
aI0
aI0
aI0
aI0
aI0
aI21
aI0
aI0
aI0
aI1
aI0
aI0
aI1460
aI0
aI0
aI0
aI0
aI0
aI2
aI0
aI0
aI0
aI0
aI0
aI0
aI0
aI0
aI0
aI0
aI0
aI0
aI2
aI0
aI0
aI0
aI1
aI0
aI0
aI0
aI0
aI0
aI0
aI0
aI0
aI0
aI0
aI0
aI0
aI0
aI0
aI2
aI0
aI1
aI2
aI0
aI1
aI4
aI0
aI0
aI1
aI0
aI0
aI0
aI0
aI0
aI0
aI2
aI0
aI1
aI0
aI58
aI70
aI0
aI15148
aI0
aI0
aI0
aI0
aI0
aI1
aI16205
aI1
aI1
aI31
aI30
aI44
aI34
aI70
aI58
aI199
aI95
aI0
aI333
aI0
aI11
aI0
aI16346
aI0
aI0
aI0
aI0
aI0
aI0
aI0
aI6
aI0
aI0
aI0
aI0
aI1
aI0
aI0
aI0
aI0
aI0
aI0
aI5
aI2
aI0
aI10
aI1
asS'VirusShare_0de266cec128ecc3cb25f9c360912b3d'
p19
(lp20
I155
aI0
aI0
aI1
aI0
aI2
aI0
aI0
aI0
aI0
aI0
aI0
aI0
aI0
aI0
aI0
aI0
aI21
aI0
aI0
aI0
aI1
aI0
aI0
aI10359
aI31
aI0
aI0
aI0
aI0
aI2
aI0
aI0
aI0
aI0
aI0
aI0
aI0
aI0
aI0
aI0
aI0
aI0
aI2
aI0
aI0
aI0
aI1
aI0
aI0
aI0
aI0
aI0
aI0
aI0
aI0
aI0
aI0
aI0
aI0
aI0
aI2
aI0
aI1
aI2
aI0
aI1
aI5
aI0
aI0
aI1
aI0
aI0
aI0
aI0
aI0
aI0
aI0
aI2
aI0
aI1
aI0
aI61
aI72
aI0
aI92630
aI0
aI0
aI0
aI0
aI0
aI1
aI101107
aI1
aI1
aI31
aI0
aI34
aI31
aI61
aI44
aI130
aI72
aI0
aI204
aI0
aI9
aI0
aI101251
aI0
aI0
aI0
aI0
aI0
aI0
aI0
aI0
aI6
aI0
aI0
aI0
aI0
aI1
aI0
aI0
aI0
aI0
aI0
aI0
aI6
aI2
aI0
aI11
aI1
asS'VirusShare_01a14518fd89d137539bf84914e56aab'
p21
(lp22
I155
aI0
aI0
aI1
aI0
aI2
aI0
aI0
aI0
aI0
aI0
aI0
aI0
aI0
aI0
aI0
aI0
aI21
aI0
aI0
aI0
aI1
aI0
aI0
aI1326
aI31
aI0
aI0
aI0
aI0
aI2
aI0
aI0
aI0
aI0
aI0
aI0
aI0
aI0
aI0
aI0
aI0
aI0
aI2
aI0
aI0
aI0
aI1
aI0
aI0
aI0
aI0
aI0
aI0
aI0
aI0
aI0
aI0
aI0
aI0
aI0
aI2
aI0
aI1
aI2
aI0
aI1
aI5
aI0
aI0
aI1
aI0
aI0
aI0
aI0
aI0
aI0
aI0
aI2
aI0
aI1
aI0
aI61
aI72
aI0
aI11327
aI0
aI0
aI0
aI0
aI0
aI1
aI12066
aI1
aI1
aI31
aI0
aI34
aI31
aI61
aI44
aI130
aI72
aI0
aI204
aI0
aI9
aI0
aI12210
aI0
aI0
aI0
aI0
aI0
aI0
aI0
aI0
aI6
aI0
aI0
aI0
aI0
aI1
aI0
aI0
aI0
aI0
aI0
aI0
aI6
aI2
aI0
aI11
aI1
asS'VirusShare_0f3d7feb77353c21910a907623d2cbd3'
p23
(lp24
I24
aI0
aI0
aI0
aI0
aI2
aI0
aI0
aI0
aI0
aI0
aI0
aI0
aI0
aI0
aI0
aI0
aI23
aI0
aI0
aI0
aI1
aI1
aI0
aI8002
aI35
aI0
aI0
aI0
aI0
aI0
aI0
aI0
aI0
aI0
aI0
aI0
aI0
aI0
aI0
aI0
aI0
aI0
aI0
aI0
aI0
aI0
aI1
aI0
aI0
aI0
aI0
aI0
aI0
aI0
aI0
aI0
aI0
aI0
aI0
aI0
aI1
aI0
aI1
aI0
aI0
aI1
aI5
aI0
aI0
aI0
aI0
aI0
aI0
aI0
aI0
aI0
aI0
aI1
aI0
aI1
aI0
aI0
aI63544
aI0
aI63544
aI0
aI0
aI0
aI0
aI0
aI0
aI64163
aI1
aI1
aI0
aI0
aI43
aI35
aI50
aI49
aI69
aI55
aI0
aI177
aI0
aI8
aI0
aI64237
aI0
aI0
aI0
aI0
aI0
aI0
aI0
aI0
aI6
aI0
aI0
aI0
aI0
aI1
aI0
aI0
aI0
aI0
aI0
aI0
aI6
aI1
aI0
aI11
aI0
asS'VirusShare_1e3b38461b3d39caf2e0897f89d8a9a4'
p25
(lp26
I155
aI0
aI0
aI1
aI0
aI2
aI0
aI0
aI0
aI0
aI0
aI0
aI0
aI0
aI0
aI0
aI0
aI21
aI0
aI0
aI0
aI1
aI0
aI0
aI10364
aI31
aI0
aI0
aI0
aI0
aI2
aI0
aI0
aI0
aI0
aI0
aI0
aI0
aI0
aI0
aI0
aI0
aI0
aI2
aI0
aI0
aI0
aI1
aI0
aI0
aI0
aI0
aI0
aI0
aI0
aI0
aI0
aI0
aI0
aI0
aI0
aI2
aI0
aI1
aI2
aI0
aI1
aI5
aI0
aI0
aI1
aI0
aI0
aI0
aI0
aI0
aI0
aI0
aI2
aI0
aI1
aI0
aI61
aI72
aI0
aI92677
aI0
aI0
aI0
aI0
aI0
aI1
aI101154
aI1
aI1
aI31
aI0
aI34
aI31
aI61
aI44
aI130
aI72
aI0
aI204
aI0
aI9
aI0
aI101298
aI0
aI0
aI0
aI0
aI0
aI0
aI0
aI0
aI6
aI0
aI0
aI0
aI0
aI1
aI0
aI0
aI0
aI0
aI0
aI0
aI6
aI2
aI0
aI11
aI1
asS'VirusShare_1bce3cc357c1f9bf9f5c41d01cab6c24'
p27
(lp28
I24
aI0
aI0
aI0
aI0
aI2
aI0
aI0
aI0
aI0
aI0
aI0
aI0
aI0
aI0
aI0
aI0
aI23
aI0
aI0
aI0
aI1
aI1
aI0
aI12761
aI35
aI0
aI0
aI0
aI0
aI0
aI0
aI0
aI0
aI0
aI0
aI0
aI0
aI0
aI0
aI0
aI0
aI0
aI0
aI0
aI0
aI0
aI1
aI0
aI0
aI0
aI0
aI0
aI0
aI0
aI0
aI0
aI0
aI0
aI0
aI0
aI1
aI0
aI1
aI0
aI0
aI1
aI5
aI0
aI0
aI0
aI0
aI0
aI0
aI0
aI0
aI0
aI0
aI1
aI0
aI1
aI0
aI0
aI101614
aI0
aI101614
aI0
aI0
aI0
aI0
aI0
aI0
aI102234
aI1
aI1
aI0
aI0
aI43
aI35
aI54
aI50
aI69
aI55
aI0
aI173
aI0
aI8
aI0
aI102308
aI0
aI0
aI0
aI0
aI0
aI0
aI0
aI0
aI6
aI0
aI0
aI0
aI0
aI1
aI0
aI0
aI0
aI0
aI0
aI0
aI6
aI1
aI0
aI11
aI0
asS'VirusShare_00000c1d5dcf7543499a66493c3b6bc0'
p29
(lp30
I18
aI0
aI2
aI0
aI1
aI0
aI2
aI0
aI0
aI0
aI0
aI0
aI0
aI0
aI0
aI0
aI0
aI0
aI1
aI0
aI0
aI0
aI1
aI0
aI0
aI8070
aI0
aI0
aI0
aI0
aI0
aI6
aI0
aI0
aI0
aI0
aI0
aI0
aI0
aI0
aI0
aI0
aI0
aI0
aI6
aI0
aI0
aI0
aI1
aI0
aI0
aI0
aI0
aI0
aI0
aI0
aI0
aI0
aI0
aI0
aI4
aI0
aI0
aI6
aI0
aI1
aI2
aI0
aI1
aI328
aI0
aI0
aI0
aI0
aI0
aI0
aI0
aI0
aI0
aI1
aI0
aI1
aI18
aI167
aI27275
aI0
aI27290
aI0
aI0
aI0
aI0
aI0
aI1
aI9179
aI1
aI1
aI57
aI45
aI167
aI65
aI27275
aI366
aI27290
aI27290
aI0
aI27290
aI0
aI17
aI0
aI9674
aI0
aI0
aI0
aI0
aI0
aI0
aI0
aI5
aI0
aI0
aI0
aI0
aI1
aI0
aI0
aI0
aI0
aI0
aI0
aI4
aI6
aI0
aI351
aI1
asS'VirusShare_1a53bf036dcd3c805611087327f1add3'
p31
(lp32
I25
aI0
aI49
aI0
aI0
aI0
aI2
aI0
aI0
aI0
aI0
aI0
aI0
aI0
aI0
aI0
aI0
aI0
aI24
aI0
aI0
aI0
aI1
aI0
aI0
aI15834
aI0
aI0
aI0
aI0
aI0
aI6
aI0
aI0
aI0
aI0
aI0
aI0
aI0
aI0
aI0
aI0
aI0
aI0
aI6
aI0
aI16
aI0
aI1
aI0
aI1
aI0
aI0
aI0
aI0
aI0
aI0
aI0
aI90
aI74
aI2
aI0
aI0
aI8
aI0
aI1
aI0
aI0
aI1
aI479
aI0
aI0
aI0
aI0
aI0
aI0
aI0
aI4
aI0
aI1
aI0
aI1
aI25
aI156
aI380
aI0
aI131129
aI0
aI0
aI0
aI0
aI0
aI0
aI367931
aI1
aI1
aI380
aI377
aI6070
aI380
aI11929
aI6070
aI73345
aI17388
aI0
aI131129
aI0
aI24
aI0
aI369371
aI0
aI0
aI0
aI0
aI0
aI0
aI0
aI5
aI0
aI0
aI0
aI0
aI0
aI0
aI0
aI0
aI0
aI0
aI0
aI5
aI8
aI3
aI509
aI0
asS'VirusShare_0ba30e2529407c5265d1de89ee6ad55e'
p33
(lp34
I0
aI4
aI0
aI0
aI0
aI0
aI2
aI0
aI0
aI0
aI3
aI5
aI0
aI1
aI1
aI1
aI1
aI0
aI0
aI71
aI71
aI0
aI0
aI0
aI5
aI0
aI0
aI0
aI0
aI1
aI0
aI0
aI0
aI0
aI0
aI0
aI0
aI0
aI0
aI0
aI0
aI3
aI0
aI0
aI2
aI0
aI0
aI1019
aI0
aI0
aI0
aI0
aI0
aI0
aI3
aI6
aI2
aI1
aI0
aI6
aI1
aI75
aI0
aI1
aI0
aI0
aI0
aI1
aI0
aI0
aI0
aI0
aI0
aI2
aI4
aI152
aI0
aI81
aI0
aI71
aI0
aI0
aI0
aI24033
aI1
aI0
aI1
aI0
aI0
aI0
aI0
aI0
aI0
aI0
aI0
aI0
aI1
aI0
aI14
aI24169
aI0
aI0
aI0
aI0
aI6
aI3381
aI8772
aI197
aI289
aI152
aI178
aI63
aI81
aI34
aI43
aI0
aI0
aI0
aI0
aI0
aI0
aI0
aI1
aI1
aI0
aI0
aI0
aI0
aI0
aI6
aI0
aI0
aI89
aI0
asS'VirusShare_1d5c4e5f5a720b5a341653a5b8e00040'
p35
(lp36
I12
aI0
aI20
aI0
aI1
aI0
aI2
aI0
aI0
aI0
aI0
aI0
aI0
aI0
aI0
aI0
aI0
aI0
aI21
aI0
aI0
aI0
aI1
aI0
aI0
aI1496
aI0
aI0
aI0
aI0
aI0
aI2
aI0
aI0
aI0
aI0
aI0
aI0
aI0
aI0
aI0
aI0
aI0
aI0
aI2
aI0
aI0
aI0
aI1
aI0
aI0
aI0
aI0
aI0
aI0
aI0
aI0
aI0
aI0
aI0
aI0
aI0
aI0
aI2
aI0
aI1
aI2
aI0
aI1
aI4
aI0
aI0
aI1
aI0
aI0
aI0
aI0
aI0
aI0
aI2
aI0
aI1
aI0
aI58
aI70
aI0
aI15544
aI0
aI0
aI0
aI0
aI0
aI1
aI16601
aI1
aI1
aI31
aI30
aI44
aI34
aI70
aI58
aI199
aI95
aI0
aI333
aI0
aI11
aI0
aI16742
aI0
aI0
aI0
aI0
aI0
aI0
aI0
aI6
aI0
aI0
aI0
aI0
aI1
aI0
aI0
aI0
aI0
aI0
aI0
aI5
aI2
aI0
aI10
aI1
asS'VirusShare_0a0453bb14f13a13ecd9ba62abef43d7'
p37
(lp38
I22
aI0
aI36
aI0
aI0
aI0
aI2
aI0
aI0
aI0
aI0
aI0
aI0
aI0
aI0
aI0
aI0
aI0
aI21
aI0
aI0
aI0
aI1
aI1
aI0
aI2292
aI0
aI0
aI0
aI0
aI0
aI4
aI0
aI0
aI0
aI0
aI0
aI0
aI0
aI0
aI0
aI0
aI0
aI0
aI4
aI0
aI16
aI0
aI1
aI0
aI0
aI0
aI0
aI0
aI0
aI0
aI0
aI0
aI15
aI0
aI2
aI0
aI0
aI8
aI0
aI1
aI0
aI0
aI1
aI5
aI0
aI0
aI0
aI0
aI0
aI0
aI0
aI0
aI0
aI1
aI0
aI1
aI0
aI85
aI110
aI0
aI33908
aI0
aI0
aI0
aI0
aI0
aI0
aI17434
aI1
aI1
aI110
aI107
aI133
aI131
aI183
aI138
aI283
aI275
aI0
aI1065
aI0
aI16
aI0
aI17596
aI0
aI0
aI0
aI0
aI0
aI1
aI0
aI6
aI0
aI0
aI0
aI0
aI1
aI0
aI0
aI15
aI0
aI0
aI0
aI6
aI8
aI3
aI11
aI0
asS'VirusShare_1d66eb16d7a881e71abf8f57e0e1297a'
p39
(lp40
I24
aI0
aI31
aI0
aI1
aI0
aI2
aI0
aI0
aI0
aI0
aI0
aI0
aI0
aI0
aI0
aI0
aI0
aI23
aI0
aI0
aI0
aI1
aI0
aI0
aI1182
aI0
aI0
aI0
aI0
aI0
aI0
aI0
aI0
aI0
aI0
aI0
aI0
aI0
aI0
aI0
aI0
aI0
aI0
aI0
aI0
aI0
aI0
aI1
aI0
aI0
aI0
aI0
aI0
aI0
aI0
aI0
aI0
aI0
aI0
aI0
aI0
aI0
aI2
aI0
aI1
aI2
aI0
aI1
aI5
aI0
aI0
aI0
aI0
aI0
aI0
aI0
aI0
aI0
aI2
aI0
aI1
aI0
aI51
aI12291
aI0
aI12291
aI0
aI0
aI0
aI0
aI0
aI0
aI13205
aI1
aI1
aI49
aI31
aI55
aI51
aI69
aI56
aI108
aI90
aI0
aI179
aI0
aI11
aI0
aI13279
aI0
aI0
aI0
aI0
aI0
aI0
aI0
aI6
aI0
aI0
aI0
aI0
aI1
aI0
aI0
aI0
aI0
aI0
aI0
aI6
aI2
aI0
aI11
aI1
asS'VirusShare_1b84c0db0929336a39ec88d307867b26'
p41
(lp42
I6
aI0
aI0
aI0
aI0
aI2
aI0
aI0
aI0
aI0
aI0
aI0
aI0
aI0
aI0
aI0
aI0
aI0
aI0
aI0
aI0
aI1
aI1
aI0
aI2284
aI5
aI0
aI0
aI0
aI0
aI1
aI0
aI0
aI0
aI0
aI0
aI0
aI0
aI0
aI0
aI0
aI0
aI0
aI1
aI0
aI0
aI0
aI1
aI0
aI0
aI0
aI0
aI0
aI0
aI0
aI0
aI0
aI0
aI0
aI0
aI0
aI1
aI0
aI1
aI0
aI0
aI1
aI111
aI0
aI0
aI0
aI0
aI0
aI0
aI0
aI0
aI0
aI0
aI1
aI0
aI1
aI6
aI0
aI11298
aI0
aI11298
aI0
aI0
aI0
aI0
aI0
aI0
aI3388
aI1
aI1
aI0
aI0
aI0
aI0
aI5
aI0
aI34
aI16
aI0
aI67
aI0
aI5
aI0
aI3567
aI0
aI0
aI0
aI0
aI0
aI0
aI0
aI0
aI5
aI0
aI0
aI0
aI0
aI1
aI0
aI0
aI0
aI0
aI0
aI0
aI3
aI1
aI0
aI122
aI0
asS'VirusShare_1d3c0e498042faf43b3591afcb986daf'
p43
(lp44
I12
aI0
aI20
aI0
aI1
aI0
aI2
aI0
aI0
aI0
aI0
aI0
aI0
aI0
aI0
aI0
aI0
aI0
aI21
aI0
aI0
aI0
aI1
aI0
aI0
aI1567
aI0
aI0
aI0
aI0
aI0
aI2
aI0
aI0
aI0
aI0
aI0
aI0
aI0
aI0
aI0
aI0
aI0
aI0
aI2
aI0
aI0
aI0
aI1
aI0
aI0
aI0
aI0
aI0
aI0
aI0
aI0
aI0
aI0
aI0
aI0
aI0
aI0
aI2
aI0
aI1
aI2
aI0
aI1
aI4
aI0
aI0
aI1
aI0
aI0
aI0
aI0
aI0
aI0
aI2
aI0
aI1
aI0
aI58
aI70
aI0
aI16327
aI0
aI0
aI0
aI0
aI0
aI1
aI17384
aI1
aI1
aI31
aI30
aI44
aI34
aI70
aI58
aI199
aI95
aI0
aI333
aI0
aI11
aI0
aI17525
aI0
aI0
aI0
aI0
aI0
aI0
aI0
aI6
aI0
aI0
aI0
aI0
aI1
aI0
aI0
aI0
aI0
aI0
aI0
aI5
aI2
aI0
aI10
aI1
asS'VirusShare_420c77948cdf1091b3450b1ee31e4511'
p45
(lp46
I0
aI14
aI0
aI0
aI0
aI0
aI2
aI0
aI0
aI0
aI4
aI15
aI0
aI1
aI0
aI3
aI1
aI0
aI0
aI71
aI71
aI0
aI0
aI0
aI13
aI0
aI0
aI0
aI0
aI0
aI0
aI0
aI0
aI0
aI0
aI0
aI0
aI0
aI0
aI0
aI0
aI4
aI0
aI23
aI2
aI0
aI0
aI891
aI0
aI0
aI0
aI0
aI18
aI24
aI1
aI5
aI2
aI1
aI0
aI5
aI1
aI256
aI0
aI1
aI0
aI0
aI0
aI1
aI0
aI3
aI0
aI0
aI0
aI2
aI14
aI197
aI0
aI152
aI0
aI71
aI0
aI0
aI0
aI26856
aI1
aI1
aI1
aI0
aI0
aI0
aI0
aI0
aI0
aI0
aI0
aI0
aI1
aI0
aI30
aI27267
aI0
aI0
aI0
aI0
aI6
aI3551
aI14063
aI1310
aI3228
aI469
aI1181
aI253
aI263
aI197
aI241
aI0
aI0
aI0
aI0
aI0
aI0
aI0
aI1
aI1
aI0
aI0
aI0
aI0
aI0
aI4
aI0
aI3
aI290
aI0
asS'VirusShare_0dd931ecbddb9d5b48626fcaafea0b1e'
p47
(lp48
I9
aI0
aI0
aI1
aI0
aI2
aI0
aI0
aI0
aI0
aI0
aI0
aI0
aI0
aI0
aI0
aI0
aI1
aI0
aI0
aI0
aI1
aI0
aI0
aI17512
aI26
aI0
aI0
aI0
aI0
aI2
aI0
aI0
aI0
aI0
aI0
aI0
aI0
aI0
aI0
aI0
aI0
aI0
aI2
aI0
aI16
aI0
aI1
aI0
aI0
aI0
aI0
aI0
aI0
aI0
aI0
aI0
aI5
aI7
aI9
aI0
aI3
aI0
aI1
aI2
aI0
aI1
aI193
aI0
aI0
aI1
aI0
aI0
aI0
aI0
aI0
aI0
aI0
aI1
aI0
aI1
aI10
aI65
aI895
aI0
aI156313
aI0
aI0
aI0
aI0
aI0
aI1
aI5606
aI1
aI1
aI26
aI0
aI43
aI30
aI65
aI47
aI101
aI88
aI0
aI895
aI0
aI9
aI0
aI5880
aI0
aI0
aI0
aI0
aI0
aI0
aI0
aI0
aI5
aI0
aI0
aI0
aI0
aI1
aI0
aI0
aI10
aI0
aI0
aI0
aI4
aI3
aI4
aI208
aI1
asS'VirusShare_1c7e56c70aa977dbc296a570dd369008'
p49
(lp50
I42
aI0
aI13
aI0
aI1
aI0
aI2
aI0
aI0
aI0
aI0
aI0
aI0
aI0
aI0
aI0
aI0
aI0
aI23
aI0
aI0
aI0
aI1
aI0
aI0
aI780
aI0
aI0
aI0
aI0
aI0
aI4
aI0
aI0
aI0
aI0
aI0
aI0
aI0
aI0
aI0
aI0
aI0
aI0
aI4
aI0
aI23
aI0
aI1
aI0
aI0
aI0
aI0
aI0
aI0
aI0
aI0
aI0
aI18
aI24
aI2
aI0
aI0
aI5
aI0
aI1
aI2
aI0
aI1
aI760
aI0
aI0
aI1
aI0
aI0
aI0
aI0
aI1
aI0
aI1
aI0
aI1
aI42
aI322
aI469
aI0
aI11415
aI0
aI0
aI0
aI0
aI0
aI0
aI12391
aI1
aI1
aI196
aI190
aI254
aI241
aI469
aI322
aI3228
aI1181
aI0
aI3676
aI0
aI28
aI0
aI13388
aI0
aI0
aI0
aI0
aI0
aI0
aI0
aI6
aI0
aI0
aI0
aI0
aI1
aI0
aI0
aI0
aI0
aI0
aI0
aI5
aI5
aI4
aI850
aI1
asS'VirusShare_46f53613172b376ddb3347a0ee32eb38'
p51
(lp52
I155
aI0
aI0
aI1
aI0
aI2
aI0
aI0
aI0
aI0
aI0
aI0
aI0
aI0
aI0
aI0
aI0
aI21
aI0
aI0
aI0
aI1
aI0
aI0
aI6069
aI31
aI0
aI0
aI0
aI0
aI2
aI0
aI0
aI0
aI0
aI0
aI0
aI0
aI0
aI0
aI0
aI0
aI0
aI2
aI0
aI0
aI0
aI1
aI0
aI0
aI0
aI0
aI0
aI0
aI0
aI0
aI0
aI0
aI0
aI0
aI0
aI2
aI0
aI1
aI2
aI0
aI1
aI5
aI0
aI0
aI1
aI0
aI0
aI0
aI0
aI0
aI0
aI0
aI2
aI0
aI1
aI0
aI61
aI72
aI0
aI54000
aI0
aI0
aI0
aI0
aI0
aI1
aI62483
aI1
aI1
aI31
aI0
aI34
aI31
aI61
aI44
aI130
aI72
aI0
aI223
aI0
aI9
aI0
aI62627
aI0
aI0
aI0
aI0
aI0
aI0
aI0
aI0
aI6
aI0
aI0
aI0
aI0
aI1
aI0
aI0
aI0
aI0
aI0
aI0
aI6
aI2
aI0
aI11
aI1
asS'VirusShare_0bbe7c85c2be03cbe7c831aefea8c119'
p53
(lp54
I23
aI0
aI43
aI0
aI0
aI0
aI2
aI0
aI0
aI0
aI0
aI0
aI0
aI0
aI0
aI0
aI0
aI0
aI22
aI0
aI0
aI0
aI1
aI0
aI0
aI15992
aI0
aI0
aI0
aI0
aI0
aI5
aI0
aI0
aI0
aI0
aI0
aI0
aI0
aI0
aI0
aI0
aI0
aI0
aI5
aI0
aI16
aI0
aI1
aI0
aI1
aI0
aI0
aI0
aI0
aI0
aI0
aI0
aI90
aI74
aI2
aI0
aI0
aI7
aI0
aI1
aI0
aI0
aI1
aI441
aI0
aI0
aI0
aI0
aI0
aI0
aI0
aI4
aI0
aI1
aI0
aI1
aI23
aI156
aI380
aI0
aI131129
aI0
aI0
aI0
aI0
aI0
aI0
aI502906
aI1
aI1
aI342
aI327
aI380
aI380
aI6070
aI1278
aI73345
aI6070
aI0
aI131129
aI0
aI22
aI0
aI504306
aI0
aI0
aI0
aI0
aI0
aI0
aI0
aI5
aI0
aI0
aI0
aI0
aI0
aI0
aI0
aI0
aI0
aI0
aI0
aI5
aI7
aI3
aI469
aI0
asS'VirusShare_01a876ccd446abd861c48c486048da17'
p55
(lp56
I155
aI0
aI0
aI1
aI0
aI2
aI0
aI0
aI0
aI0
aI0
aI0
aI0
aI0
aI0
aI0
aI0
aI21
aI0
aI0
aI0
aI1
aI0
aI0
aI12059
aI31
aI0
aI0
aI0
aI0
aI2
aI0
aI0
aI0
aI0
aI0
aI0
aI0
aI0
aI0
aI0
aI0
aI0
aI2
aI0
aI0
aI0
aI1
aI0
aI0
aI0
aI0
aI0
aI0
aI0
aI0
aI0
aI0
aI0
aI0
aI0
aI2
aI0
aI1
aI2
aI0
aI1
aI5
aI0
aI0
aI1
aI0
aI0
aI0
aI0
aI0
aI0
aI0
aI2
aI0
aI1
aI0
aI61
aI72
aI0
aI107925
aI0
aI0
aI0
aI0
aI0
aI1
aI108658
aI1
aI1
aI31
aI0
aI34
aI31
aI61
aI44
aI130
aI72
aI0
aI204
aI0
aI9
aI0
aI108802
aI0
aI0
aI0
aI0
aI0
aI0
aI0
aI0
aI6
aI0
aI0
aI0
aI0
aI1
aI0
aI0
aI0
aI0
aI0
aI0
aI6
aI2
aI0
aI11
aI1
asS'VirusShare_0daa0f831a46c24b8dca44e27ae0f06b'
p57
(lp58
I15
aI0
aI3
aI0
aI1
aI0
aI2
aI0
aI0
aI0
aI0
aI0
aI0
aI0
aI0
aI0
aI0
aI0
aI1
aI0
aI0
aI1
aI1
aI0
aI0
aI519
aI0
aI0
aI0
aI0
aI0
aI2
aI0
aI0
aI0
aI0
aI0
aI0
aI0
aI0
aI0
aI0
aI0
aI0
aI2
aI0
aI16
aI0
aI1
aI0
aI0
aI0
aI0
aI0
aI0
aI0
aI0
aI0
aI16
aI28
aI1
aI0
aI0
aI2
aI0
aI1
aI2
aI0
aI1
aI289
aI0
aI0
aI1
aI0
aI0
aI0
aI0
aI0
aI0
aI3
aI0
aI1
aI15
aI86
aI6370
aI0
aI6370
aI0
aI0
aI0
aI0
aI0
aI0
aI4283
aI1
aI1
aI31
aI30
aI53
aI34
aI86
aI60
aI171
aI150
aI0
aI233
aI0
aI14
aI0
aI4661
aI0
aI0
aI0
aI0
aI0
aI0
aI0
aI5
aI0
aI0
aI0
aI0
aI1
aI0
aI0
aI0
aI0
aI0
aI0
aI3
aI2
aI4
aI309
aI1
asS'VirusShare_1fc29770ceb296ae7c3b37703474a52a'
p59
(lp60
I24
aI0
aI0
aI0
aI0
aI2
aI0
aI0
aI0
aI0
aI0
aI0
aI0
aI0
aI0
aI0
aI0
aI23
aI0
aI0
aI0
aI1
aI1
aI0
aI12768
aI35
aI0
aI0
aI0
aI0
aI0
aI0
aI0
aI0
aI0
aI0
aI0
aI0
aI0
aI0
aI0
aI0
aI0
aI0
aI0
aI0
aI0
aI1
aI0
aI0
aI0
aI0
aI0
aI0
aI0
aI0
aI0
aI0
aI0
aI0
aI0
aI1
aI0
aI1
aI0
aI0
aI1
aI5
aI0
aI0
aI0
aI0
aI0
aI0
aI0
aI0
aI0
aI0
aI1
aI0
aI1
aI0
aI0
aI101665
aI0
aI101665
aI0
aI0
aI0
aI0
aI0
aI0
aI102285
aI1
aI1
aI0
aI0
aI43
aI35
aI54
aI50
aI69
aI55
aI0
aI173
aI0
aI8
aI0
aI102359
aI0
aI0
aI0
aI0
aI0
aI0
aI0
aI0
aI6
aI0
aI0
aI0
aI0
aI1
aI0
aI0
aI0
aI0
aI0
aI0
aI6
aI1
aI0
aI11
aI0
asS'VirusShare_b989e79a6ba7ef67bf93556e140adb16'
p61
(lp62
I155
aI0
aI0
aI1
aI0
aI2
aI0
aI0
aI0
aI0
aI0
aI0
aI0
aI0
aI0
aI0
aI0
aI21
aI0
aI0
aI0
aI1
aI0
aI0
aI9467
aI31
aI0
aI0
aI0
aI0
aI2
aI0
aI0
aI0
aI0
aI0
aI0
aI0
aI0
aI0
aI0
aI0
aI0
aI2
aI0
aI0
aI0
aI1
aI0
aI0
aI0
aI0
aI0
aI0
aI0
aI0
aI0
aI0
aI0
aI0
aI0
aI2
aI0
aI1
aI2
aI0
aI1
aI5
aI0
aI0
aI1
aI0
aI0
aI0
aI0
aI0
aI0
aI0
aI2
aI0
aI1
aI0
aI61
aI72
aI0
aI84602
aI0
aI0
aI0
aI0
aI0
aI1
aI85335
aI1
aI1
aI31
aI0
aI34
aI31
aI61
aI44
aI130
aI72
aI0
aI204
aI0
aI9
aI0
aI85479
aI0
aI0
aI0
aI0
aI0
aI0
aI0
aI0
aI6
aI0
aI0
aI0
aI0
aI1
aI0
aI0
aI0
aI0
aI0
aI0
aI6
aI2
aI0
aI11
aI1
asS'VirusShare_1bdfab168eb34b49a2e174f696defd82'
p63
(lp64
I12
aI0
aI20
aI0
aI1
aI0
aI2
aI0
aI0
aI0
aI0
aI0
aI0
aI0
aI0
aI0
aI0
aI0
aI21
aI0
aI0
aI0
aI1
aI0
aI0
aI1468
aI0
aI0
aI0
aI0
aI0
aI2
aI0
aI0
aI0
aI0
aI0
aI0
aI0
aI0
aI0
aI0
aI0
aI0
aI2
aI0
aI0
aI0
aI1
aI0
aI0
aI0
aI0
aI0
aI0
aI0
aI0
aI0
aI0
aI0
aI0
aI0
aI0
aI2
aI0
aI1
aI2
aI0
aI1
aI4
aI0
aI0
aI1
aI0
aI0
aI0
aI0
aI0
aI0
aI2
aI0
aI1
aI0
aI58
aI70
aI0
aI15239
aI0
aI0
aI0
aI0
aI0
aI1
aI16296
aI1
aI1
aI31
aI30
aI44
aI34
aI70
aI58
aI199
aI95
aI0
aI333
aI0
aI11
aI0
aI16437
aI0
aI0
aI0
aI0
aI0
aI0
aI0
aI6
aI0
aI0
aI0
aI0
aI1
aI0
aI0
aI0
aI0
aI0
aI0
aI5
aI2
aI0
aI10
aI1
asS'VirusShare_1deca819a5d6e45c1df3fe1bd410e28c'
p65
(lp66
I12
aI0
aI20
aI0
aI1
aI0
aI2
aI0
aI0
aI0
aI0
aI0
aI0
aI0
aI0
aI0
aI0
aI0
aI21
aI0
aI0
aI0
aI1
aI0
aI0
aI1459
aI0
aI0
aI0
aI0
aI0
aI2
aI0
aI0
aI0
aI0
aI0
aI0
aI0
aI0
aI0
aI0
aI0
aI0
aI2
aI0
aI0
aI0
aI1
aI0
aI0
aI0
aI0
aI0
aI0
aI0
aI0
aI0
aI0
aI0
aI0
aI0
aI0
aI2
aI0
aI1
aI2
aI0
aI1
aI4
aI0
aI0
aI1
aI0
aI0
aI0
aI0
aI0
aI0
aI2
aI0
aI1
aI0
aI58
aI70
aI0
aI15139
aI0
aI0
aI0
aI0
aI0
aI1
aI16196
aI1
aI1
aI31
aI30
aI44
aI34
aI70
aI58
aI199
aI95
aI0
aI333
aI0
aI11
aI0
aI16337
aI0
aI0
aI0
aI0
aI0
aI0
aI0
aI6
aI0
aI0
aI0
aI0
aI1
aI0
aI0
aI0
aI0
aI0
aI0
aI5
aI2
aI0
aI10
aI1
asS'VirusShare_e64fdc4fc6d5d204b1e51dab5aa6492b'
p67
(lp68
I155
aI0
aI0
aI1
aI0
aI2
aI0
aI0
aI0
aI0
aI0
aI0
aI0
aI0
aI0
aI0
aI0
aI21
aI0
aI0
aI0
aI1
aI0
aI0
aI13345
aI31
aI0
aI0
aI0
aI0
aI2
aI0
aI0
aI0
aI0
aI0
aI0
aI0
aI0
aI0
aI0
aI0
aI0
aI2
aI0
aI0
aI0
aI1
aI0
aI0
aI0
aI0
aI0
aI0
aI0
aI0
aI0
aI0
aI0
aI0
aI0
aI2
aI0
aI1
aI2
aI0
aI1
aI5
aI0
aI0
aI1
aI0
aI0
aI0
aI0
aI0
aI0
aI0
aI2
aI0
aI1
aI0
aI61
aI72
aI0
aI119500
aI0
aI0
aI0
aI0
aI0
aI1
aI135699
aI1
aI1
aI31
aI0
aI34
aI31
aI61
aI44
aI130
aI72
aI0
aI204
aI0
aI9
aI0
aI135843
aI0
aI0
aI0
aI0
aI0
aI0
aI0
aI0
aI6
aI0
aI0
aI0
aI0
aI1
aI0
aI0
aI0
aI0
aI0
aI0
aI6
aI2
aI0
aI11
aI1
asS'VirusShare_1abc2092320aa5df5799a8762dba0301'
p69
(lp70
I155
aI0
aI0
aI1
aI0
aI2
aI0
aI0
aI0
aI0
aI0
aI0
aI0
aI0
aI0
aI0
aI0
aI21
aI0
aI0
aI0
aI1
aI0
aI0
aI1367
aI31
aI0
aI0
aI0
aI0
aI2
aI0
aI0
aI0
aI0
aI0
aI0
aI0
aI0
aI0
aI0
aI0
aI0
aI2
aI0
aI0
aI0
aI1
aI0
aI0
aI0
aI0
aI0
aI0
aI0
aI0
aI0
aI0
aI0
aI0
aI0
aI2
aI0
aI1
aI2
aI0
aI1
aI5
aI0
aI0
aI1
aI0
aI0
aI0
aI0
aI0
aI0
aI0
aI2
aI0
aI1
aI0
aI61
aI72
aI0
aI11702
aI0
aI0
aI0
aI0
aI0
aI1
aI12451
aI1
aI1
aI31
aI0
aI34
aI31
aI61
aI44
aI130
aI72
aI0
aI204
aI0
aI9
aI0
aI12595
aI0
aI0
aI0
aI0
aI0
aI0
aI0
aI0
aI6
aI0
aI0
aI0
aI0
aI1
aI0
aI0
aI0
aI0
aI0
aI0
aI6
aI2
aI0
aI11
aI1
asS'VirusShare_1e9a06cd1d4a88f6cfdaec2d7420ecfa'
p71
(lp72
I24
aI0
aI31
aI0
aI1
aI0
aI2
aI0
aI0
aI0
aI0
aI0
aI0
aI0
aI0
aI0
aI0
aI0
aI23
aI0
aI0
aI0
aI1
aI0
aI0
aI1191
aI0
aI0
aI0
aI0
aI0
aI0
aI0
aI0
aI0
aI0
aI0
aI0
aI0
aI0
aI0
aI0
aI0
aI0
aI0
aI0
aI0
aI0
aI1
aI0
aI0
aI0
aI0
aI0
aI0
aI0
aI0
aI0
aI0
aI0
aI0
aI0
aI0
aI2
aI0
aI1
aI2
aI0
aI1
aI5
aI0
aI0
aI0
aI0
aI0
aI0
aI0
aI0
aI0
aI2
aI0
aI1
aI0
aI51
aI12406
aI0
aI12406
aI0
aI0
aI0
aI0
aI0
aI0
aI13304
aI1
aI1
aI49
aI31
aI55
aI51
aI69
aI56
aI90
aI90
aI0
aI179
aI0
aI11
aI0
aI13378
aI0
aI0
aI0
aI0
aI0
aI0
aI0
aI6
aI0
aI0
aI0
aI0
aI1
aI0
aI0
aI0
aI0
aI0
aI0
aI6
aI2
aI0
aI11
aI1
asS'VirusShare_ebc44b76617faeb88cc359adc8fac851'
p73
(lp74
I0
aI14
aI0
aI0
aI0
aI0
aI2
aI0
aI0
aI0
aI4
aI15
aI0
aI1
aI0
aI3
aI1
aI0
aI0
aI52
aI52
aI0
aI0
aI0
aI13
aI0
aI0
aI0
aI0
aI0
aI0
aI0
aI0
aI0
aI0
aI0
aI0
aI0
aI0
aI0
aI0
aI4
aI0
aI23
aI2
aI0
aI0
aI731
aI0
aI0
aI0
aI0
aI18
aI24
aI1
aI5
aI2
aI1
aI0
aI5
aI1
aI22
aI0
aI1
aI0
aI0
aI0
aI1
aI0
aI3
aI0
aI0
aI0
aI2
aI1
aI197
aI0
aI152
aI0
aI52
aI0
aI0
aI0
aI20070
aI1
aI1
aI1
aI0
aI0
aI0
aI0
aI0
aI0
aI0
aI0
aI0
aI1
aI0
aI29
aI20221
aI0
aI0
aI0
aI0
aI6
aI3551
aI8947
aI1310
aI3228
aI469
aI1181
aI241
aI253
aI152
aI197
aI0
aI0
aI0
aI0
aI0
aI0
aI0
aI1
aI1
aI0
aI0
aI0
aI0
aI0
aI4
aI0
aI3
aI30
aI0
asS'VirusShare_00fe895fe8a37540368e6a5888fd78d4'
p75
(lp76
I24
aI0
aI0
aI0
aI0
aI2
aI0
aI0
aI0
aI0
aI0
aI0
aI0
aI0
aI0
aI0
aI0
aI23
aI0
aI0
aI0
aI1
aI1
aI0
aI5638
aI42
aI0
aI0
aI0
aI0
aI0
aI0
aI0
aI0
aI0
aI0
aI0
aI0
aI0
aI0
aI0
aI0
aI0
aI0
aI0
aI0
aI0
aI1
aI0
aI0
aI0
aI0
aI0
aI0
aI0
aI0
aI0
aI0
aI0
aI0
aI0
aI1
aI0
aI1
aI0
aI0
aI1
aI5
aI0
aI0
aI0
aI0
aI0
aI0
aI0
aI0
aI0
aI0
aI1
aI0
aI1
aI0
aI0
aI44620
aI0
aI44620
aI0
aI0
aI0
aI0
aI0
aI0
aI45250
aI1
aI1
aI0
aI0
aI43
aI42
aI53
aI50
aI69
aI55
aI0
aI177
aI0
aI8
aI0
aI45324
aI0
aI0
aI0
aI0
aI0
aI0
aI0
aI0
aI6
aI0
aI0
aI0
aI0
aI1
aI0
aI0
aI0
aI0
aI0
aI0
aI6
aI1
aI0
aI11
aI0
asS'VirusShare_0cfa5c0d4cf9a6f0b3bea5fa4e0f9e69'
p77
(lp78
I12
aI0
aI20
aI0
aI1
aI0
aI2
aI0
aI0
aI0
aI0
aI0
aI0
aI0
aI0
aI0
aI0
aI0
aI21
aI0
aI0
aI0
aI1
aI0
aI0
aI1493
aI0
aI0
aI0
aI0
aI0
aI2
aI0
aI0
aI0
aI0
aI0
aI0
aI0
aI0
aI0
aI0
aI0
aI0
aI2
aI0
aI0
aI0
aI1
aI0
aI0
aI0
aI0
aI0
aI0
aI0
aI0
aI0
aI0
aI0
aI0
aI0
aI0
aI2
aI0
aI1
aI2
aI0
aI1
aI4
aI0
aI0
aI1
aI0
aI0
aI0
aI0
aI0
aI0
aI2
aI0
aI1
aI0
aI58
aI70
aI0
aI15519
aI0
aI0
aI0
aI0
aI0
aI1
aI16576
aI1
aI1
aI31
aI30
aI44
aI34
aI70
aI58
aI199
aI95
aI0
aI333
aI0
aI11
aI0
aI16717
aI0
aI0
aI0
aI0
aI0
aI0
aI0
aI6
aI0
aI0
aI0
aI0
aI1
aI0
aI0
aI0
aI0
aI0
aI0
aI5
aI2
aI0
aI10
aI1
asS'VirusShare_1ef4bf423a7a6f9bef0e6a68d571f36c'
p79
(lp80
I17
aI0
aI31
aI0
aI1
aI0
aI2
aI0
aI0
aI0
aI0
aI0
aI0
aI0
aI0
aI0
aI0
aI0
aI16
aI0
aI0
aI0
aI1
aI0
aI0
aI1197
aI0
aI0
aI0
aI0
aI0
aI4
aI0
aI0
aI0
aI0
aI0
aI0
aI0
aI0
aI0
aI0
aI0
aI0
aI4
aI0
aI16
aI0
aI1
aI0
aI0
aI0
aI0
aI0
aI0
aI0
aI0
aI0
aI12
aI0
aI1
aI0
aI0
aI4
aI0
aI1
aI2
aI0
aI1
aI327
aI0
aI0
aI1
aI0
aI0
aI0
aI0
aI3
aI0
aI2
aI0
aI1
aI17
aI1493
aI1502
aI0
aI11171
aI0
aI0
aI0
aI0
aI0
aI0
aI7805
aI1
aI1
aI83
aI81
aI112
aI87
aI143
aI121
aI1502
aI1493
aI0
aI4023
aI0
aI16
aI0
aI8225
aI0
aI0
aI0
aI0
aI0
aI0
aI0
aI5
aI0
aI0
aI0
aI0
aI1
aI0
aI0
aI0
aI0
aI0
aI0
aI3
aI4
aI2
aI349
aI1
asS'VirusShare_1b666945c8f818baaa2b70885640df81'
p81
(lp82
I24
aI0
aI31
aI0
aI1
aI0
aI2
aI0
aI0
aI0
aI0
aI0
aI0
aI0
aI0
aI0
aI0
aI0
aI23
aI0
aI0
aI0
aI1
aI0
aI0
aI1155
aI0
aI0
aI0
aI0
aI0
aI0
aI0
aI0
aI0
aI0
aI0
aI0
aI0
aI0
aI0
aI0
aI0
aI0
aI0
aI0
aI0
aI0
aI1
aI0
aI0
aI0
aI0
aI0
aI0
aI0
aI0
aI0
aI0
aI0
aI0
aI0
aI0
aI2
aI0
aI1
aI2
aI0
aI1
aI5
aI0
aI0
aI0
aI0
aI0
aI0
aI0
aI0
aI0
aI2
aI0
aI1
aI0
aI51
aI11993
aI0
aI11993
aI0
aI0
aI0
aI0
aI0
aI0
aI12907
aI1
aI1
aI49
aI31
aI55
aI51
aI69
aI56
aI108
aI90
aI0
aI179
aI0
aI11
aI0
aI12981
aI0
aI0
aI0
aI0
aI0
aI0
aI0
aI6
aI0
aI0
aI0
aI0
aI1
aI0
aI0
aI0
aI0
aI0
aI0
aI6
aI2
aI0
aI11
aI1
asS'VirusShare_1c07e7d57f8338a8a3c27e4f2668e06e'
p83
(lp84
I24
aI0
aI0
aI0
aI0
aI2
aI0
aI0
aI0
aI0
aI0
aI0
aI0
aI0
aI0
aI0
aI0
aI23
aI0
aI0
aI0
aI1
aI1
aI0
aI6439
aI42
aI0
aI0
aI0
aI0
aI0
aI0
aI0
aI0
aI0
aI0
aI0
aI0
aI0
aI0
aI0
aI0
aI0
aI0
aI0
aI0
aI0
aI1
aI0
aI0
aI0
aI0
aI0
aI0
aI0
aI0
aI0
aI0
aI0
aI0
aI0
aI1
aI0
aI1
aI0
aI0
aI1
aI5
aI0
aI0
aI0
aI0
aI0
aI0
aI0
aI0
aI0
aI0
aI1
aI0
aI1
aI0
aI0
aI51024
aI0
aI51024
aI0
aI0
aI0
aI0
aI0
aI0
aI51654
aI1
aI1
aI0
aI0
aI43
aI42
aI53
aI50
aI69
aI55
aI0
aI177
aI0
aI8
aI0
aI51728
aI0
aI0
aI0
aI0
aI0
aI0
aI0
aI0
aI6
aI0
aI0
aI0
aI0
aI1
aI0
aI0
aI0
aI0
aI0
aI0
aI6
aI1
aI0
aI11
aI0
asS'VirusShare_b89a4960a2d4dfc1cfef8bed8c94e23f'
p85
(lp86
I18
aI0
aI3
aI0
aI1
aI0
aI2
aI0
aI0
aI0
aI0
aI0
aI0
aI0
aI0
aI0
aI0
aI0
aI1
aI0
aI0
aI0
aI1
aI0
aI0
aI1969
aI0
aI0
aI0
aI0
aI0
aI3
aI0
aI0
aI0
aI0
aI0
aI0
aI0
aI0
aI0
aI0
aI0
aI0
aI3
aI0
aI0
aI0
aI1
aI0
aI0
aI0
aI0
aI0
aI0
aI0
aI0
aI0
aI0
aI0
aI4
aI0
aI0
aI3
aI0
aI1
aI2
aI0
aI1
aI328
aI0
aI0
aI0
aI0
aI0
aI0
aI0
aI0
aI0
aI1
aI0
aI1
aI18
aI773
aI16034
aI0
aI16039
aI0
aI0
aI0
aI0
aI0
aI1
aI4584
aI1
aI1
aI57
aI57
aI57
aI57
aI65
aI57
aI773
aI83
aI0
aI16034
aI0
aI17
aI0
aI5079
aI0
aI0
aI0
aI0
aI0
aI0
aI0
aI5
aI0
aI0
aI0
aI0
aI0
aI0
aI0
aI0
aI0
aI0
aI0
aI4
aI3
aI0
aI351
aI1
asS'VirusShare_0e4508d47549bed3061d4c46a8500eb7'
p87
(lp88
I10
aI0
aI0
aI1
aI0
aI2
aI0
aI0
aI0
aI0
aI0
aI0
aI0
aI0
aI0
aI0
aI0
aI1
aI0
aI0
aI0
aI1
aI0
aI0
aI674
aI9
aI0
aI0
aI0
aI0
aI0
aI0
aI0
aI0
aI0
aI0
aI0
aI0
aI0
aI0
aI0
aI0
aI0
aI0
aI0
aI16
aI0
aI1
aI0
aI0
aI0
aI0
aI0
aI0
aI0
aI0
aI0
aI0
aI7
aI3
aI0
aI0
aI0
aI1
aI2
aI0
aI1
aI184
aI0
aI0
aI1
aI0
aI0
aI0
aI0
aI0
aI1
aI0
aI1
aI0
aI1
aI10
aI0
aI0
aI0
aI5586
aI0
aI0
aI0
aI0
aI0
aI0
aI6273
aI1
aI1
aI9
aI0
aI37
aI30
aI64
aI39
aI100
aI81
aI0
aI123
aI0
aI9
aI0
aI6556
aI0
aI0
aI0
aI0
aI0
aI0
aI0
aI0
aI6
aI0
aI0
aI0
aI0
aI1
aI0
aI0
aI4
aI0
aI0
aI0
aI4
aI0
aI3
aI210
aI1
asS'VirusShare_1cec3bc64ed9ef988f52cd9dc5a92ea2'
p89
(lp90
I24
aI0
aI36
aI0
aI0
aI0
aI2
aI0
aI0
aI0
aI0
aI0
aI0
aI0
aI0
aI0
aI0
aI0
aI23
aI0
aI0
aI0
aI1
aI1
aI0
aI1621
aI0
aI0
aI0
aI0
aI0
aI0
aI0
aI0
aI0
aI0
aI0
aI0
aI0
aI0
aI0
aI0
aI0
aI0
aI0
aI0
aI16
aI0
aI1
aI0
aI0
aI0
aI0
aI0
aI0
aI0
aI0
aI0
aI15
aI0
aI2
aI0
aI0
aI8
aI0
aI1
aI0
aI0
aI1
aI5
aI0
aI0
aI0
aI0
aI0
aI0
aI0
aI0
aI0
aI1
aI0
aI1
aI0
aI121
aI122
aI0
aI23278
aI0
aI0
aI0
aI0
aI0
aI1
aI26212
aI1
aI1
aI122
aI121
aI133
aI131
aI179
aI152
aI378
aI218
aI0
aI836
aI0
aI16
aI0
aI26297
aI0
aI0
aI0
aI0
aI0
aI0
aI0
aI6
aI0
aI0
aI0
aI0
aI2
aI0
aI0
aI15
aI0
aI0
aI0
aI6
aI8
aI3
aI11
aI0
asS'VirusShare_0fe209e110b6a46c4746d3e45ce9e5ab'
p91
(lp92
I12
aI0
aI20
aI0
aI1
aI0
aI2
aI0
aI0
aI0
aI0
aI0
aI0
aI0
aI0
aI0
aI0
aI0
aI21
aI0
aI0
aI0
aI1
aI0
aI0
aI1453
aI0
aI0
aI0
aI0
aI0
aI2
aI0
aI0
aI0
aI0
aI0
aI0
aI0
aI0
aI0
aI0
aI0
aI0
aI2
aI0
aI0
aI0
aI1
aI0
aI0
aI0
aI0
aI0
aI0
aI0
aI0
aI0
aI0
aI0
aI0
aI0
aI0
aI2
aI0
aI1
aI2
aI0
aI1
aI4
aI0
aI0
aI1
aI0
aI0
aI0
aI0
aI0
aI0
aI2
aI0
aI1
aI0
aI58
aI70
aI0
aI15077
aI0
aI0
aI0
aI0
aI0
aI1
aI16134
aI1
aI1
aI31
aI30
aI44
aI34
aI70
aI58
aI199
aI95
aI0
aI333
aI0
aI11
aI0
aI16275
aI0
aI0
aI0
aI0
aI0
aI0
aI0
aI6
aI0
aI0
aI0
aI0
aI1
aI0
aI0
aI0
aI0
aI0
aI0
aI5
aI2
aI0
aI10
aI1
asS'VirusShare_1cc487caf236c9f64e76fe8d55c752d0'
p93
(lp94
I67
aI0
aI5
aI0
aI0
aI0
aI2
aI0
aI0
aI0
aI0
aI0
aI0
aI0
aI0
aI0
aI0
aI0
aI1
aI0
aI0
aI0
aI1
aI0
aI0
aI4682
aI0
aI0
aI0
aI0
aI0
aI7
aI0
aI0
aI0
aI0
aI0
aI0
aI0
aI0
aI0
aI0
aI0
aI0
aI7
aI0
aI23
aI0
aI1
aI0
aI1
aI0
aI0
aI0
aI0
aI0
aI0
aI0
aI30
aI42
aI8
aI0
aI0
aI8
aI0
aI1
aI0
aI0
aI1
aI1277
aI0
aI0
aI0
aI0
aI0
aI0
aI0
aI3
aI0
aI0
aI0
aI1
aI67
aI156
aI178
aI0
aI196763
aI0
aI0
aI0
aI0
aI0
aI0
aI281132
aI1
aI1
aI476
aI444
aI879
aI879
aI2244
aI879
aI17121
aI12884
aI0
aI17381
aI0
aI54
aI0
aI282628
aI0
aI0
aI0
aI0
aI0
aI0
aI0
aI5
aI0
aI0
aI0
aI0
aI0
aI0
aI0
aI3
aI0
aI0
aI0
aI5
aI8
aI4
aI1349
aI0
asS'VirusShare_0c9817e7dd4df803f2b1ce0067da068f'
p95
(lp96
I24
aI0
aI0
aI0
aI0
aI2
aI0
aI0
aI0
aI0
aI0
aI0
aI0
aI0
aI0
aI0
aI0
aI23
aI0
aI0
aI0
aI1
aI1
aI0
aI12742
aI35
aI0
aI0
aI0
aI0
aI0
aI0
aI0
aI0
aI0
aI0
aI0
aI0
aI0
aI0
aI0
aI0
aI0
aI0
aI0
aI0
aI0
aI1
aI0
aI0
aI0
aI0
aI0
aI0
aI0
aI0
aI0
aI0
aI0
aI0
aI0
aI1
aI0
aI1
aI0
aI0
aI1
aI5
aI0
aI0
aI0
aI0
aI0
aI0
aI0
aI0
aI0
aI0
aI1
aI0
aI1
aI0
aI0
aI101459
aI0
aI101459
aI0
aI0
aI0
aI0
aI0
aI0
aI102079
aI1
aI1
aI0
aI0
aI43
aI35
aI54
aI50
aI69
aI55
aI0
aI173
aI0
aI8
aI0
aI102153
aI0
aI0
aI0
aI0
aI0
aI0
aI0
aI0
aI6
aI0
aI0
aI0
aI0
aI1
aI0
aI0
aI0
aI0
aI0
aI0
aI6
aI1
aI0
aI11
aI0
asS'VirusShare_0cce0ab2f067be049bfb0e09233891bd'
p97
(lp98
I155
aI0
aI0
aI1
aI0
aI2
aI0
aI0
aI0
aI0
aI0
aI0
aI0
aI0
aI0
aI0
aI0
aI21
aI0
aI0
aI0
aI1
aI0
aI0
aI12034
aI31
aI0
aI0
aI0
aI0
aI2
aI0
aI0
aI0
aI0
aI0
aI0
aI0
aI0
aI0
aI0
aI0
aI0
aI2
aI0
aI0
aI0
aI1
aI0
aI0
aI0
aI0
aI0
aI0
aI0
aI0
aI0
aI0
aI0
aI0
aI0
aI2
aI0
aI1
aI2
aI0
aI1
aI5
aI0
aI0
aI1
aI0
aI0
aI0
aI0
aI0
aI0
aI0
aI2
aI0
aI1
aI0
aI61
aI72
aI0
aI107707
aI0
aI0
aI0
aI0
aI0
aI1
aI108440
aI1
aI1
aI31
aI0
aI34
aI31
aI61
aI44
aI130
aI72
aI0
aI204
aI0
aI9
aI0
aI108584
aI0
aI0
aI0
aI0
aI0
aI0
aI0
aI0
aI6
aI0
aI0
aI0
aI0
aI1
aI0
aI0
aI0
aI0
aI0
aI0
aI6
aI2
aI0
aI11
aI1
asS'VirusShare_1c6af6ce042b841ae14785c5ad6e0f6e'
p99
(lp100
I24
aI0
aI0
aI0
aI0
aI2
aI0
aI0
aI0
aI0
aI0
aI0
aI0
aI0
aI0
aI0
aI0
aI23
aI0
aI0
aI0
aI1
aI1
aI0
aI11506
aI35
aI0
aI0
aI0
aI0
aI0
aI0
aI0
aI0
aI0
aI0
aI0
aI0
aI0
aI0
aI0
aI0
aI0
aI0
aI0
aI0
aI0
aI1
aI0
aI0
aI0
aI0
aI0
aI0
aI0
aI0
aI0
aI0
aI0
aI0
aI0
aI1
aI0
aI1
aI0
aI0
aI1
aI5
aI0
aI0
aI0
aI0
aI0
aI0
aI0
aI0
aI0
aI0
aI1
aI0
aI1
aI0
aI0
aI91574
aI0
aI91574
aI0
aI0
aI0
aI0
aI0
aI0
aI92194
aI1
aI1
aI0
aI0
aI43
aI35
aI54
aI50
aI69
aI55
aI0
aI173
aI0
aI8
aI0
aI92268
aI0
aI0
aI0
aI0
aI0
aI0
aI0
aI0
aI6
aI0
aI0
aI0
aI0
aI1
aI0
aI0
aI0
aI0
aI0
aI0
aI6
aI1
aI0
aI11
aI0
asS'VirusShare_0e1ce3dace9d678f99ef9ae042cdefc5'
p101
(lp102
I24
aI0
aI0
aI0
aI0
aI2
aI0
aI0
aI0
aI0
aI0
aI0
aI0
aI0
aI0
aI0
aI0
aI23
aI0
aI0
aI0
aI1
aI0
aI0
aI13340
aI31
aI0
aI0
aI0
aI0
aI0
aI0
aI0
aI0
aI0
aI0
aI0
aI0
aI0
aI0
aI0
aI0
aI0
aI0
aI0
aI0
aI0
aI1
aI0
aI0
aI0
aI0
aI0
aI0
aI0
aI0
aI0
aI0
aI0
aI0
aI0
aI1
aI0
aI1
aI0
aI0
aI1
aI5
aI0
aI0
aI0
aI0
aI0
aI0
aI0
aI0
aI0
aI0
aI1
aI0
aI1
aI0
aI0
aI106222
aI0
aI106222
aI0
aI0
aI0
aI0
aI0
aI0
aI106876
aI1
aI1
aI0
aI0
aI43
aI31
aI55
aI50
aI61
aI55
aI0
aI205
aI0
aI8
aI0
aI106951
aI0
aI0
aI0
aI0
aI0
aI0
aI0
aI0
aI6
aI0
aI0
aI0
aI0
aI1
aI0
aI0
aI0
aI0
aI0
aI0
aI6
aI1
aI0
aI11
aI0
asS'VirusShare_ca8c74bc30f5c03ff8379da5be4372c0'
p103
(lp104
I155
aI0
aI0
aI1
aI0
aI2
aI0
aI0
aI0
aI0
aI0
aI0
aI0
aI0
aI0
aI0
aI0
aI21
aI0
aI0
aI0
aI1
aI0
aI0
aI1367
aI31
aI0
aI0
aI0
aI0
aI2
aI0
aI0
aI0
aI0
aI0
aI0
aI0
aI0
aI0
aI0
aI0
aI0
aI2
aI0
aI0
aI0
aI1
aI0
aI0
aI0
aI0
aI0
aI0
aI0
aI0
aI0
aI0
aI0
aI0
aI0
aI2
aI0
aI1
aI2
aI0
aI1
aI5
aI0
aI0
aI1
aI0
aI0
aI0
aI0
aI0
aI0
aI0
aI2
aI0
aI1
aI0
aI61
aI72
aI0
aI11700
aI0
aI0
aI0
aI0
aI0
aI1
aI12449
aI1
aI1
aI31
aI0
aI34
aI31
aI61
aI44
aI130
aI72
aI0
aI204
aI0
aI9
aI0
aI12593
aI0
aI0
aI0
aI0
aI0
aI0
aI0
aI0
aI6
aI0
aI0
aI0
aI0
aI1
aI0
aI0
aI0
aI0
aI0
aI0
aI6
aI2
aI0
aI11
aI1
asS'VirusShare_0b622c4105d924acfc39546510e3de9c'
p105
(lp106
I155
aI0
aI0
aI1
aI0
aI2
aI0
aI0
aI0
aI0
aI0
aI0
aI0
aI0
aI0
aI0
aI0
aI21
aI0
aI0
aI0
aI1
aI0
aI0
aI13302
aI31
aI0
aI0
aI0
aI0
aI2
aI0
aI0
aI0
aI0
aI0
aI0
aI0
aI0
aI0
aI0
aI0
aI0
aI2
aI0
aI0
aI0
aI1
aI0
aI0
aI0
aI0
aI0
aI0
aI0
aI0
aI0
aI0
aI0
aI0
aI0
aI2
aI0
aI1
aI2
aI0
aI1
aI5
aI0
aI0
aI1
aI0
aI0
aI0
aI0
aI0
aI0
aI0
aI2
aI0
aI1
aI0
aI61
aI72
aI0
aI119111
aI0
aI0
aI0
aI0
aI0
aI1
aI135310
aI1
aI1
aI31
aI0
aI34
aI31
aI61
aI44
aI130
aI72
aI0
aI204
aI0
aI9
aI0
aI135454
aI0
aI0
aI0
aI0
aI0
aI0
aI0
aI0
aI6
aI0
aI0
aI0
aI0
aI1
aI0
aI0
aI0
aI0
aI0
aI0
aI6
aI2
aI0
aI11
aI1
asS'VirusShare_1c36cc27a50733ab1e8c35bfe6d84fd5'
p107
(lp108
I0
aI3
aI0
aI1
aI0
aI0
aI2
aI0
aI0
aI0
aI0
aI1
aI0
aI0
aI0
aI2
aI5
aI1
aI0
aI834
aI0
aI0
aI0
aI3
aI0
aI0
aI4
aI19
aI0
aI0
aI0
aI0
aI0
aI0
aI0
aI0
aI0
aI0
aI0
aI0
aI19
aI0
aI16
aI2
aI0
aI0
aI227
aI0
aI0
aI0
aI0
aI8
aI13
aI4
aI0
aI19
aI0
aI1
aI0
aI0
aI1
aI61
aI0
aI1
aI0
aI0
aI0
aI0
aI0
aI0
aI1
aI0
aI2
aI3
aI0
aI153
aI163
aI0
aI28254
aI3175
aI0
aI71
aI0
aI29171
aI1
aI0
aI1
aI206
aI206
aI206
aI206
aI206
aI206
aI294
aI206
aI0
aI1
aI0
aI0
aI29874
aI0
aI0
aI0
aI0
aI5
aI206
aI1397
aI206
aI206
aI206
aI206
aI206
aI206
aI206
aI206
aI0
aI0
aI0
aI0
aI0
aI0
aI12
aI1
aI0
aI0
aI0
aI1
aI0
aI0
aI4
aI19
aI4
aI621
aI0
asS'VirusShare_0b0a4ff2b4b9e4859c52b0ab181e738e'
p109
(lp110
I15
aI0
aI3
aI0
aI1
aI0
aI2
aI0
aI0
aI0
aI0
aI0
aI0
aI0
aI0
aI0
aI0
aI0
aI1
aI0
aI0
aI1
aI1
aI0
aI0
aI2075
aI0
aI0
aI0
aI0
aI0
aI1
aI0
aI0
aI0
aI0
aI0
aI0
aI0
aI0
aI0
aI0
aI0
aI0
aI1
aI0
aI13
aI0
aI1
aI0
aI0
aI0
aI0
aI0
aI0
aI0
aI0
aI0
aI5
aI5
aI1
aI0
aI0
aI2
aI0
aI1
aI2
aI0
aI1
aI289
aI0
aI0
aI1
aI0
aI0
aI0
aI0
aI0
aI0
aI3
aI0
aI1
aI15
aI64
aI28212
aI0
aI28212
aI0
aI0
aI0
aI0
aI0
aI0
aI4821
aI1
aI1
aI30
aI28
aI53
aI31
aI64
aI60
aI167
aI137
aI0
aI228
aI0
aI14
aI0
aI5199
aI0
aI0
aI0
aI0
aI0
aI0
aI0
aI5
aI0
aI0
aI0
aI0
aI1
aI0
aI0
aI6
aI0
aI0
aI0
aI3
aI2
aI4
aI309
aI1
asS'VirusShare_0a3c7d5241720b0bd9b630a2e2064de7'
p111
(lp112
I155
aI0
aI0
aI1
aI0
aI2
aI0
aI0
aI0
aI0
aI0
aI0
aI0
aI0
aI0
aI0
aI0
aI21
aI0
aI0
aI0
aI1
aI0
aI0
aI6072
aI31
aI0
aI0
aI0
aI0
aI2
aI0
aI0
aI0
aI0
aI0
aI0
aI0
aI0
aI0
aI0
aI0
aI0
aI2
aI0
aI0
aI0
aI1
aI0
aI0
aI0
aI0
aI0
aI0
aI0
aI0
aI0
aI0
aI0
aI0
aI0
aI2
aI0
aI1
aI2
aI0
aI1
aI5
aI0
aI0
aI1
aI0
aI0
aI0
aI0
aI0
aI0
aI0
aI2
aI0
aI1
aI0
aI61
aI72
aI0
aI54029
aI0
aI0
aI0
aI0
aI0
aI1
aI62560
aI1
aI1
aI31
aI0
aI34
aI31
aI61
aI44
aI130
aI72
aI0
aI223
aI0
aI9
aI0
aI62704
aI0
aI0
aI0
aI0
aI0
aI0
aI0
aI0
aI6
aI0
aI0
aI0
aI0
aI1
aI0
aI0
aI0
aI0
aI0
aI0
aI6
aI2
aI0
aI11
aI1
asS'VirusShare_eb9cb7616e3e7b2c886f26a55c3881a6'
p113
(lp114
I24
aI0
aI0
aI0
aI0
aI2
aI0
aI0
aI0
aI0
aI0
aI0
aI0
aI0
aI0
aI0
aI0
aI23
aI0
aI0
aI0
aI1
aI1
aI0
aI12712
aI35
aI0
aI0
aI0
aI0
aI0
aI0
aI0
aI0
aI0
aI0
aI0
aI0
aI0
aI0
aI0
aI0
aI0
aI0
aI0
aI0
aI0
aI1
aI0
aI0
aI0
aI0
aI0
aI0
aI0
aI0
aI0
aI0
aI0
aI0
aI0
aI1
aI0
aI1
aI0
aI0
aI1
aI5
aI0
aI0
aI0
aI0
aI0
aI0
aI0
aI0
aI0
aI0
aI1
aI0
aI1
aI0
aI0
aI101224
aI0
aI101224
aI0
aI0
aI0
aI0
aI0
aI0
aI101844
aI1
aI1
aI0
aI0
aI43
aI35
aI54
aI50
aI69
aI55
aI0
aI173
aI0
aI8
aI0
aI101918
aI0
aI0
aI0
aI0
aI0
aI0
aI0
aI0
aI6
aI0
aI0
aI0
aI0
aI1
aI0
aI0
aI0
aI0
aI0
aI0
aI6
aI1
aI0
aI11
aI0
asS'VirusShare_746dfbe44d014576d58ab0b3885382f3'
p115
(lp116
I12
aI0
aI20
aI0
aI1
aI0
aI2
aI0
aI0
aI0
aI0
aI0
aI0
aI0
aI0
aI0
aI0
aI0
aI21
aI0
aI0
aI0
aI1
aI0
aI0
aI1455
aI0
aI0
aI0
aI0
aI0
aI2
aI0
aI0
aI0
aI0
aI0
aI0
aI0
aI0
aI0
aI0
aI0
aI0
aI2
aI0
aI0
aI0
aI1
aI0
aI0
aI0
aI0
aI0
aI0
aI0
aI0
aI0
aI0
aI0
aI0
aI0
aI0
aI2
aI0
aI1
aI2
aI0
aI1
aI4
aI0
aI0
aI1
aI0
aI0
aI0
aI0
aI0
aI0
aI2
aI0
aI1
aI0
aI58
aI70
aI0
aI15101
aI0
aI0
aI0
aI0
aI0
aI1
aI16158
aI1
aI1
aI31
aI30
aI44
aI34
aI70
aI58
aI199
aI95
aI0
aI333
aI0
aI11
aI0
aI16299
aI0
aI0
aI0
aI0
aI0
aI0
aI0
aI6
aI0
aI0
aI0
aI0
aI1
aI0
aI0
aI0
aI0
aI0
aI0
aI5
aI2
aI0
aI10
aI1
asS'VirusShare_4f34f9ca349e446b342fe327b5dd6a02'
p117
(lp118
I24
aI0
aI0
aI0
aI0
aI2
aI0
aI0
aI0
aI0
aI0
aI0
aI0
aI0
aI0
aI0
aI0
aI23
aI0
aI0
aI0
aI1
aI0
aI0
aI10158
aI31
aI0
aI0
aI0
aI0
aI0
aI0
aI0
aI0
aI0
aI0
aI0
aI0
aI0
aI0
aI0
aI0
aI0
aI0
aI0
aI0
aI0
aI1
aI0
aI0
aI0
aI0
aI0
aI0
aI0
aI0
aI0
aI0
aI0
aI0
aI0
aI1
aI0
aI1
aI0
aI0
aI1
aI5
aI0
aI0
aI0
aI0
aI0
aI0
aI0
aI0
aI0
aI0
aI1
aI0
aI1
aI0
aI0
aI80793
aI0
aI80793
aI0
aI0
aI0
aI0
aI0
aI0
aI81408
aI1
aI1
aI0
aI0
aI43
aI31
aI55
aI50
aI61
aI55
aI0
aI177
aI0
aI8
aI0
aI81482
aI0
aI0
aI0
aI0
aI0
aI0
aI0
aI0
aI6
aI0
aI0
aI0
aI0
aI1
aI0
aI0
aI0
aI0
aI0
aI0
aI6
aI1
aI0
aI11
aI0
asS'VirusShare_0cc5861a78be1021b24ff5696fb01b62'
p119
(lp120
I15
aI0
aI3
aI0
aI1
aI0
aI2
aI0
aI0
aI0
aI0
aI0
aI0
aI0
aI0
aI0
aI0
aI0
aI1
aI0
aI0
aI0
aI1
aI0
aI0
aI1493
aI0
aI0
aI0
aI0
aI0
aI3
aI0
aI0
aI0
aI0
aI0
aI0
aI0
aI0
aI0
aI0
aI0
aI0
aI3
aI0
aI0
aI0
aI1
aI0
aI0
aI0
aI0
aI0
aI0
aI0
aI0
aI0
aI0
aI0
aI4
aI0
aI0
aI3
aI0
aI1
aI2
aI0
aI1
aI274
aI0
aI0
aI0
aI0
aI0
aI0
aI0
aI0
aI0
aI1
aI0
aI1
aI15
aI1003
aI9730
aI0
aI9736
aI0
aI0
aI0
aI0
aI0
aI1
aI4129
aI1
aI1
aI57
aI45
aI57
aI57
aI62
aI57
aI1003
aI65
aI0
aI9730
aI0
aI14
aI0
aI4566
aI0
aI0
aI0
aI0
aI0
aI0
aI0
aI5
aI0
aI0
aI0
aI0
aI0
aI0
aI0
aI0
aI0
aI0
aI0
aI4
aI3
aI0
aI294
aI1
asS'VirusShare_1b6c72de1cf0e9f5c88221fd6b2dbed7'
p121
(lp122
I155
aI0
aI0
aI1
aI0
aI2
aI0
aI0
aI0
aI0
aI0
aI0
aI0
aI0
aI0
aI0
aI0
aI21
aI0
aI0
aI0
aI1
aI0
aI0
aI12030
aI31
aI0
aI0
aI0
aI0
aI2
aI0
aI0
aI0
aI0
aI0
aI0
aI0
aI0
aI0
aI0
aI0
aI0
aI2
aI0
aI0
aI0
aI1
aI0
aI0
aI0
aI0
aI0
aI0
aI0
aI0
aI0
aI0
aI0
aI0
aI0
aI2
aI0
aI1
aI2
aI0
aI1
aI5
aI0
aI0
aI1
aI0
aI0
aI0
aI0
aI0
aI0
aI0
aI2
aI0
aI1
aI0
aI61
aI72
aI0
aI107671
aI0
aI0
aI0
aI0
aI0
aI1
aI108404
aI1
aI1
aI31
aI0
aI34
aI31
aI61
aI44
aI130
aI72
aI0
aI204
aI0
aI9
aI0
aI108548
aI0
aI0
aI0
aI0
aI0
aI0
aI0
aI0
aI6
aI0
aI0
aI0
aI0
aI1
aI0
aI0
aI0
aI0
aI0
aI0
aI6
aI2
aI0
aI11
aI1
asS'VirusShare_b8ae008bd3b3bf8f325c6a23ac0528f8'
p123
(lp124
I24
aI0
aI31
aI0
aI1
aI0
aI2
aI0
aI0
aI0
aI0
aI0
aI0
aI0
aI0
aI0
aI0
aI0
aI23
aI0
aI0
aI0
aI1
aI0
aI0
aI1091
aI0
aI0
aI0
aI0
aI0
aI0
aI0
aI0
aI0
aI0
aI0
aI0
aI0
aI0
aI0
aI0
aI0
aI0
aI0
aI0
aI0
aI0
aI1
aI0
aI0
aI0
aI0
aI0
aI0
aI0
aI0
aI0
aI0
aI0
aI0
aI0
aI0
aI2
aI0
aI1
aI2
aI0
aI1
aI5
aI0
aI0
aI0
aI0
aI0
aI0
aI0
aI0
aI0
aI2
aI0
aI1
aI0
aI51
aI12254
aI0
aI12254
aI0
aI0
aI0
aI0
aI0
aI0
aI13293
aI1
aI1
aI51
aI49
aI56
aI55
aI90
aI69
aI121
aI108
aI0
aI179
aI0
aI12
aI0
aI13367
aI0
aI0
aI0
aI0
aI0
aI0
aI0
aI6
aI0
aI0
aI0
aI0
aI1
aI0
aI0
aI0
aI0
aI0
aI0
aI6
aI2
aI0
aI11
aI1
asS'VirusShare_0c9aed998c94a637885de5d69bcaf006'
p125
(lp126
I20
aI0
aI31
aI0
aI0
aI0
aI2
aI0
aI0
aI0
aI0
aI0
aI0
aI0
aI0
aI0
aI0
aI0
aI14
aI0
aI0
aI0
aI1
aI1
aI0
aI916
aI0
aI0
aI0
aI0
aI0
aI9
aI0
aI0
aI0
aI0
aI0
aI0
aI0
aI0
aI0
aI0
aI0
aI0
aI9
aI0
aI16
aI0
aI1
aI0
aI0
aI0
aI0
aI0
aI0
aI0
aI0
aI0
aI7
aI0
aI1
aI0
aI0
aI9
aI0
aI1
aI0
aI0
aI1
aI365
aI0
aI0
aI0
aI0
aI0
aI0
aI0
aI1
aI0
aI1
aI0
aI1
aI20
aI85
aI131
aI0
aI11183
aI0
aI0
aI0
aI0
aI0
aI0
aI11539
aI1
aI1
aI152
aI131
aI170
aI159
aI194
aI184
aI304
aI275
aI0
aI4011
aI0
aI19
aI0
aI12101
aI0
aI0
aI0
aI0
aI0
aI0
aI0
aI6
aI0
aI0
aI0
aI0
aI2
aI0
aI0
aI7
aI0
aI0
aI0
aI6
aI9
aI3
aI411
aI0
asS'VirusShare_0eefb941960bb0088ea550debc3c88d1'
p127
(lp128
I16
aI0
aI3
aI0
aI1
aI0
aI2
aI0
aI0
aI0
aI0
aI0
aI0
aI0
aI0
aI0
aI0
aI0
aI1
aI0
aI0
aI1
aI1
aI0
aI0
aI611
aI0
aI0
aI0
aI0
aI0
aI0
aI0
aI0
aI0
aI0
aI0
aI0
aI0
aI0
aI0
aI0
aI0
aI0
aI0
aI0
aI16
aI0
aI1
aI0
aI0
aI0
aI0
aI0
aI0
aI0
aI0
aI0
aI16
aI28
aI1
aI0
aI0
aI2
aI0
aI1
aI2
aI0
aI1
aI308
aI0
aI0
aI1
aI0
aI0
aI0
aI0
aI0
aI0
aI2
aI0
aI1
aI16
aI65
aI8290
aI0
aI8290
aI0
aI0
aI0
aI0
aI0
aI0
aI9417
aI1
aI1
aI31
aI30
aI53
aI37
aI65
aI60
aI175
aI171
aI0
aI181
aI0
aI15
aI0
aI9816
aI0
aI0
aI0
aI0
aI0
aI0
aI0
aI5
aI0
aI0
aI0
aI0
aI1
aI0
aI0
aI0
aI0
aI0
aI0
aI4
aI2
aI4
aI329
aI1
asS'VirusShare_786050cb52f0ae0d2f67cfe01e935a55'
p129
(lp130
I15
aI0
aI3
aI0
aI1
aI0
aI2
aI0
aI0
aI0
aI0
aI0
aI0
aI0
aI0
aI0
aI0
aI0
aI1
aI0
aI0
aI1
aI1
aI0
aI0
aI422
aI0
aI0
aI0
aI0
aI0
aI0
aI0
aI0
aI0
aI0
aI0
aI0
aI0
aI0
aI0
aI0
aI0
aI0
aI0
aI0
aI16
aI0
aI1
aI0
aI0
aI0
aI0
aI0
aI0
aI0
aI0
aI0
aI16
aI28
aI1
aI0
aI0
aI2
aI0
aI1
aI2
aI0
aI1
aI289
aI0
aI0
aI1
aI0
aI0
aI0
aI0
aI0
aI0
aI3
aI0
aI1
aI15
aI65
aI5023
aI0
aI5023
aI0
aI0
aI0
aI0
aI0
aI0
aI6150
aI1
aI1
aI31
aI30
aI53
aI34
aI65
aI60
aI171
aI167
aI0
aI230
aI0
aI14
aI0
aI6528
aI0
aI0
aI0
aI0
aI0
aI0
aI0
aI5
aI0
aI0
aI0
aI0
aI1
aI0
aI0
aI0
aI0
aI0
aI0
aI3
aI2
aI4
aI309
aI1
asS'VirusShare_0e78e992afe0bb09803e4815d3bb1b51'
p131
(lp132
I155
aI0
aI0
aI1
aI0
aI2
aI0
aI0
aI0
aI0
aI0
aI0
aI0
aI0
aI0
aI0
aI0
aI21
aI0
aI0
aI0
aI1
aI0
aI0
aI1354
aI31
aI0
aI0
aI0
aI0
aI2
aI0
aI0
aI0
aI0
aI0
aI0
aI0
aI0
aI0
aI0
aI0
aI0
aI2
aI0
aI0
aI0
aI1
aI0
aI0
aI0
aI0
aI0
aI0
aI0
aI0
aI0
aI0
aI0
aI0
aI0
aI2
aI0
aI1
aI2
aI0
aI1
aI5
aI0
aI0
aI1
aI0
aI0
aI0
aI0
aI0
aI0
aI0
aI2
aI0
aI1
aI0
aI61
aI72
aI0
aI11583
aI0
aI0
aI0
aI0
aI0
aI1
aI12332
aI1
aI1
aI31
aI0
aI34
aI31
aI61
aI44
aI130
aI72
aI0
aI204
aI0
aI9
aI0
aI12476
aI0
aI0
aI0
aI0
aI0
aI0
aI0
aI0
aI6
aI0
aI0
aI0
aI0
aI1
aI0
aI0
aI0
aI0
aI0
aI0
aI6
aI2
aI0
aI11
aI1
asS'VirusShare_f391d026ad431fea4639b49a4772ee00'
p133
(lp134
I155
aI0
aI0
aI1
aI0
aI2
aI0
aI0
aI0
aI0
aI0
aI0
aI0
aI0
aI0
aI0
aI0
aI21
aI0
aI0
aI0
aI1
aI0
aI0
aI9947
aI31
aI0
aI0
aI0
aI0
aI2
aI0
aI0
aI0
aI0
aI0
aI0
aI0
aI0
aI0
aI0
aI0
aI0
aI2
aI0
aI0
aI0
aI1
aI0
aI0
aI0
aI0
aI0
aI0
aI0
aI0
aI0
aI0
aI0
aI0
aI0
aI2
aI0
aI1
aI2
aI0
aI1
aI5
aI0
aI0
aI1
aI0
aI0
aI0
aI0
aI0
aI0
aI0
aI2
aI0
aI1
aI0
aI61
aI72
aI0
aI88916
aI0
aI0
aI0
aI0
aI0
aI1
aI89649
aI1
aI1
aI31
aI0
aI34
aI31
aI61
aI44
aI130
aI72
aI0
aI204
aI0
aI9
aI0
aI89793
aI0
aI0
aI0
aI0
aI0
aI0
aI0
aI0
aI6
aI0
aI0
aI0
aI0
aI1
aI0
aI0
aI0
aI0
aI0
aI0
aI6
aI2
aI0
aI11
aI1
asS'VirusShare_0fd4f2d6e66fc0baf4b8d504d62cbbf9'
p135
(lp136
I24
aI0
aI0
aI0
aI0
aI2
aI0
aI0
aI0
aI0
aI0
aI0
aI0
aI0
aI0
aI0
aI0
aI23
aI0
aI0
aI0
aI1
aI1
aI0
aI10092
aI35
aI0
aI0
aI0
aI0
aI0
aI0
aI0
aI0
aI0
aI0
aI0
aI0
aI0
aI0
aI0
aI0
aI0
aI0
aI0
aI0
aI0
aI1
aI0
aI0
aI0
aI0
aI0
aI0
aI0
aI0
aI0
aI0
aI0
aI0
aI0
aI1
aI0
aI1
aI0
aI0
aI1
aI5
aI0
aI0
aI0
aI0
aI0
aI0
aI0
aI0
aI0
aI0
aI1
aI0
aI1
aI0
aI0
aI80265
aI0
aI80265
aI0
aI0
aI0
aI0
aI0
aI0
aI80883
aI1
aI1
aI0
aI0
aI43
aI35
aI52
aI50
aI69
aI55
aI0
aI173
aI0
aI8
aI0
aI80957
aI0
aI0
aI0
aI0
aI0
aI0
aI0
aI0
aI6
aI0
aI0
aI0
aI0
aI1
aI0
aI0
aI0
aI0
aI0
aI0
aI6
aI1
aI0
aI11
aI0
asS'VirusShare_0f7df906c21b1ada4fcfcc339d79a37a'
p137
(lp138
I155
aI0
aI0
aI1
aI0
aI2
aI0
aI0
aI0
aI0
aI0
aI0
aI0
aI0
aI0
aI0
aI0
aI21
aI0
aI0
aI0
aI1
aI0
aI0
aI13291
aI31
aI0
aI0
aI0
aI0
aI2
aI0
aI0
aI0
aI0
aI0
aI0
aI0
aI0
aI0
aI0
aI0
aI0
aI2
aI0
aI0
aI0
aI1
aI0
aI0
aI0
aI0
aI0
aI0
aI0
aI0
aI0
aI0
aI0
aI0
aI0
aI2
aI0
aI1
aI2
aI0
aI1
aI5
aI0
aI0
aI1
aI0
aI0
aI0
aI0
aI0
aI0
aI0
aI2
aI0
aI1
aI0
aI61
aI72
aI0
aI119016
aI0
aI0
aI0
aI0
aI0
aI1
aI135191
aI1
aI1
aI31
aI0
aI34
aI31
aI61
aI44
aI130
aI72
aI0
aI204
aI0
aI9
aI0
aI135335
aI0
aI0
aI0
aI0
aI0
aI0
aI0
aI0
aI6
aI0
aI0
aI0
aI0
aI1
aI0
aI0
aI0
aI0
aI0
aI0
aI6
aI2
aI0
aI11
aI1
asS'VirusShare_1c51b1a2ad3b77c3bde862b47aca48ed'
p139
(lp140
I18
aI0
aI17
aI0
aI1
aI0
aI2
aI0
aI0
aI0
aI0
aI0
aI0
aI0
aI0
aI0
aI0
aI0
aI1
aI0
aI0
aI0
aI1
aI1
aI0
aI2312
aI0
aI0
aI0
aI0
aI0
aI2
aI0
aI0
aI0
aI0
aI0
aI0
aI0
aI0
aI0
aI0
aI0
aI0
aI2
aI0
aI0
aI0
aI1
aI0
aI0
aI0
aI0
aI0
aI0
aI0
aI0
aI0
aI0
aI0
aI0
aI0
aI0
aI3
aI0
aI1
aI2
aI0
aI1
aI328
aI0
aI0
aI1
aI0
aI0
aI0
aI0
aI0
aI0
aI3
aI0
aI1
aI18
aI414
aI10535
aI0
aI27446
aI0
aI0
aI0
aI0
aI0
aI0
aI35617
aI1
aI1
aI68
aI54
aI84
aI71
aI110
aI97
aI414
aI143
aI0
aI10535
aI0
aI17
aI0
aI36023
aI0
aI0
aI0
aI0
aI0
aI0
aI0
aI5
aI0
aI0
aI0
aI0
aI1
aI0
aI0
aI0
aI0
aI0
aI0
aI7
aI3
aI0
aI351
aI1
asS'VirusShare_0fb644804b13197070d624979fb85a4e'
p141
(lp142
I155
aI0
aI0
aI1
aI0
aI2
aI0
aI0
aI0
aI0
aI0
aI0
aI0
aI0
aI0
aI0
aI0
aI21
aI0
aI0
aI0
aI1
aI0
aI0
aI1347
aI31
aI0
aI0
aI0
aI0
aI2
aI0
aI0
aI0
aI0
aI0
aI0
aI0
aI0
aI0
aI0
aI0
aI0
aI2
aI0
aI0
aI0
aI1
aI0
aI0
aI0
aI0
aI0
aI0
aI0
aI0
aI0
aI0
aI0
aI0
aI0
aI2
aI0
aI1
aI2
aI0
aI1
aI5
aI0
aI0
aI1
aI0
aI0
aI0
aI0
aI0
aI0
aI0
aI2
aI0
aI1
aI0
aI61
aI72
aI0
aI11520
aI0
aI0
aI0
aI0
aI0
aI1
aI12259
aI1
aI1
aI31
aI0
aI34
aI31
aI61
aI44
aI130
aI72
aI0
aI204
aI0
aI9
aI0
aI12403
aI0
aI0
aI0
aI0
aI0
aI0
aI0
aI0
aI6
aI0
aI0
aI0
aI0
aI1
aI0
aI0
aI0
aI0
aI0
aI0
aI6
aI2
aI0
aI11
aI1
asS'VirusShare_0b8dbaf10b29dce925808f31077d97e9'
p143
(lp144
I155
aI0
aI0
aI1
aI0
aI2
aI0
aI0
aI0
aI0
aI0
aI0
aI0
aI0
aI0
aI0
aI0
aI21
aI0
aI0
aI0
aI1
aI0
aI0
aI9517
aI31
aI0
aI0
aI0
aI0
aI2
aI0
aI0
aI0
aI0
aI0
aI0
aI0
aI0
aI0
aI0
aI0
aI0
aI2
aI0
aI0
aI0
aI1
aI0
aI0
aI0
aI0
aI0
aI0
aI0
aI0
aI0
aI0
aI0
aI0
aI0
aI2
aI0
aI1
aI2
aI0
aI1
aI5
aI0
aI0
aI1
aI0
aI0
aI0
aI0
aI0
aI0
aI0
aI2
aI0
aI1
aI0
aI61
aI72
aI0
aI85053
aI0
aI0
aI0
aI0
aI0
aI1
aI85786
aI1
aI1
aI31
aI0
aI34
aI31
aI61
aI44
aI130
aI72
aI0
aI204
aI0
aI9
aI0
aI85930
aI0
aI0
aI0
aI0
aI0
aI0
aI0
aI0
aI6
aI0
aI0
aI0
aI0
aI1
aI0
aI0
aI0
aI0
aI0
aI0
aI6
aI2
aI0
aI11
aI1
asS'VirusShare_0deb5b18a037211e74318a7c04fe13d6'
p145
(lp146
I24
aI0
aI0
aI0
aI0
aI2
aI0
aI0
aI0
aI0
aI0
aI0
aI0
aI0
aI0
aI0
aI0
aI23
aI0
aI0
aI0
aI1
aI1
aI0
aI12744
aI35
aI0
aI0
aI0
aI0
aI0
aI0
aI0
aI0
aI0
aI0
aI0
aI0
aI0
aI0
aI0
aI0
aI0
aI0
aI0
aI0
aI0
aI1
aI0
aI0
aI0
aI0
aI0
aI0
aI0
aI0
aI0
aI0
aI0
aI0
aI0
aI1
aI0
aI1
aI0
aI0
aI1
aI5
aI0
aI0
aI0
aI0
aI0
aI0
aI0
aI0
aI0
aI0
aI1
aI0
aI1
aI0
aI0
aI101477
aI0
aI101477
aI0
aI0
aI0
aI0
aI0
aI0
aI102097
aI1
aI1
aI0
aI0
aI43
aI35
aI54
aI50
aI69
aI55
aI0
aI173
aI0
aI8
aI0
aI102171
aI0
aI0
aI0
aI0
aI0
aI0
aI0
aI0
aI6
aI0
aI0
aI0
aI0
aI1
aI0
aI0
aI0
aI0
aI0
aI0
aI6
aI1
aI0
aI11
aI0
asS'VirusShare_0d38c94647f2d269470c28fc9abd97a8'
p147
(lp148
I24
aI0
aI31
aI0
aI1
aI0
aI2
aI0
aI0
aI0
aI0
aI0
aI0
aI0
aI0
aI0
aI0
aI0
aI23
aI0
aI0
aI0
aI1
aI0
aI0
aI1157
aI0
aI0
aI0
aI0
aI0
aI0
aI0
aI0
aI0
aI0
aI0
aI0
aI0
aI0
aI0
aI0
aI0
aI0
aI0
aI0
aI0
aI0
aI1
aI0
aI0
aI0
aI0
aI0
aI0
aI0
aI0
aI0
aI0
aI0
aI0
aI0
aI0
aI2
aI0
aI1
aI2
aI0
aI1
aI5
aI0
aI0
aI0
aI0
aI0
aI0
aI0
aI0
aI0
aI2
aI0
aI1
aI0
aI51
aI12008
aI0
aI12008
aI0
aI0
aI0
aI0
aI0
aI0
aI12922
aI1
aI1
aI49
aI31
aI55
aI51
aI69
aI56
aI108
aI90
aI0
aI179
aI0
aI11
aI0
aI12996
aI0
aI0
aI0
aI0
aI0
aI0
aI0
aI6
aI0
aI0
aI0
aI0
aI1
aI0
aI0
aI0
aI0
aI0
aI0
aI6
aI2
aI0
aI11
aI1
asS'VirusShare_1c02f78e7166896887219d669613d3b7'
p149
(lp150
I24
aI0
aI0
aI0
aI0
aI2
aI0
aI0
aI0
aI0
aI0
aI0
aI0
aI0
aI0
aI0
aI0
aI23
aI0
aI0
aI0
aI1
aI1
aI0
aI2405
aI42
aI0
aI0
aI0
aI0
aI0
aI0
aI0
aI0
aI0
aI0
aI0
aI0
aI0
aI0
aI0
aI0
aI0
aI0
aI0
aI0
aI0
aI1
aI0
aI0
aI0
aI0
aI0
aI0
aI0
aI0
aI0
aI0
aI0
aI0
aI0
aI1
aI0
aI1
aI0
aI0
aI1
aI5
aI0
aI0
aI0
aI0
aI0
aI0
aI0
aI0
aI0
aI0
aI1
aI0
aI1
aI0
aI0
aI18752
aI0
aI18752
aI0
aI0
aI0
aI0
aI0
aI0
aI19382
aI1
aI1
aI0
aI0
aI43
aI42
aI53
aI50
aI69
aI55
aI0
aI177
aI0
aI8
aI0
aI19456
aI0
aI0
aI0
aI0
aI0
aI0
aI0
aI0
aI6
aI0
aI0
aI0
aI0
aI1
aI0
aI0
aI0
aI0
aI0
aI0
aI6
aI1
aI0
aI11
aI0
asS'VirusShare_0c64744cf83af804fb1c5e2ee8567393'
p151
(lp152
I0
aI14
aI0
aI0
aI0
aI0
aI2
aI0
aI0
aI0
aI4
aI15
aI0
aI1
aI0
aI3
aI1
aI0
aI0
aI71
aI71
aI0
aI0
aI0
aI13
aI0
aI0
aI0
aI0
aI0
aI0
aI0
aI0
aI0
aI0
aI0
aI0
aI0
aI0
aI0
aI0
aI4
aI0
aI23
aI2
aI0
aI0
aI729
aI0
aI0
aI0
aI0
aI18
aI24
aI1
aI5
aI2
aI1
aI0
aI5
aI1
aI256
aI0
aI1
aI0
aI0
aI0
aI1
aI0
aI3
aI0
aI0
aI0
aI2
aI14
aI197
aI0
aI152
aI0
aI71
aI0
aI0
aI0
aI21188
aI1
aI1
aI1
aI0
aI0
aI0
aI0
aI0
aI0
aI0
aI0
aI0
aI1
aI0
aI30
aI21599
aI0
aI0
aI0
aI0
aI6
aI3551
aI9365
aI1310
aI3228
aI469
aI1181
aI253
aI263
aI197
aI241
aI0
aI0
aI0
aI0
aI0
aI0
aI0
aI1
aI1
aI0
aI0
aI0
aI0
aI0
aI4
aI0
aI3
aI290
aI0
asS'VirusShare_1d5ab9d5bf74ab86997222941eb6bde8'
p153
(lp154
I24
aI0
aI0
aI0
aI0
aI2
aI0
aI0
aI0
aI0
aI0
aI0
aI0
aI0
aI0
aI0
aI0
aI23
aI0
aI0
aI0
aI1
aI1
aI0
aI4261
aI35
aI0
aI0
aI0
aI0
aI0
aI0
aI0
aI0
aI0
aI0
aI0
aI0
aI0
aI0
aI0
aI0
aI0
aI0
aI0
aI0
aI0
aI1
aI0
aI0
aI0
aI0
aI0
aI0
aI0
aI0
aI0
aI0
aI0
aI0
aI0
aI1
aI0
aI1
aI0
aI0
aI1
aI5
aI0
aI0
aI0
aI0
aI0
aI0
aI0
aI0
aI0
aI0
aI1
aI0
aI1
aI0
aI0
aI33606
aI0
aI33606
aI0
aI0
aI0
aI0
aI0
aI0
aI34231
aI1
aI1
aI0
aI0
aI43
aI35
aI53
aI50
aI69
aI55
aI0
aI179
aI0
aI8
aI0
aI34305
aI0
aI0
aI0
aI0
aI0
aI1
aI0
aI0
aI6
aI0
aI0
aI0
aI0
aI1
aI0
aI0
aI0
aI0
aI0
aI0
aI6
aI1
aI0
aI11
aI0
asS'VirusShare_f2a41a76326c649980758d9a463e65df'
p155
(lp156
I24
aI0
aI31
aI0
aI1
aI0
aI2
aI0
aI0
aI0
aI0
aI0
aI0
aI0
aI0
aI0
aI0
aI0
aI23
aI0
aI0
aI0
aI1
aI0
aI0
aI1178
aI0
aI0
aI0
aI0
aI0
aI0
aI0
aI0
aI0
aI0
aI0
aI0
aI0
aI0
aI0
aI0
aI0
aI0
aI0
aI0
aI0
aI0
aI1
aI0
aI0
aI0
aI0
aI0
aI0
aI0
aI0
aI0
aI0
aI0
aI0
aI0
aI0
aI2
aI0
aI1
aI2
aI0
aI1
aI5
aI0
aI0
aI0
aI0
aI0
aI0
aI0
aI0
aI0
aI2
aI0
aI1
aI0
aI51
aI12249
aI0
aI12249
aI0
aI0
aI0
aI0
aI0
aI0
aI13163
aI1
aI1
aI49
aI31
aI55
aI51
aI69
aI56
aI108
aI90
aI0
aI179
aI0
aI11
aI0
aI13237
aI0
aI0
aI0
aI0
aI0
aI0
aI0
aI6
aI0
aI0
aI0
aI0
aI1
aI0
aI0
aI0
aI0
aI0
aI0
aI6
aI2
aI0
aI11
aI1
asS'VirusShare_948a3d0e3eeafe868b1c3523c2282a4b'
p157
(lp158
I155
aI0
aI0
aI1
aI0
aI2
aI0
aI0
aI0
aI0
aI0
aI0
aI0
aI0
aI0
aI0
aI0
aI21
aI0
aI0
aI0
aI1
aI0
aI0
aI12494
aI31
aI0
aI0
aI0
aI0
aI2
aI0
aI0
aI0
aI0
aI0
aI0
aI0
aI0
aI0
aI0
aI0
aI0
aI2
aI0
aI0
aI0
aI1
aI0
aI0
aI0
aI0
aI0
aI0
aI0
aI0
aI0
aI0
aI0
aI0
aI0
aI2
aI0
aI1
aI2
aI0
aI1
aI5
aI0
aI0
aI1
aI0
aI0
aI0
aI0
aI0
aI0
aI0
aI2
aI0
aI1
aI0
aI61
aI72
aI0
aI111846
aI0
aI0
aI0
aI0
aI0
aI1
aI128013
aI1
aI1
aI31
aI0
aI34
aI31
aI61
aI44
aI130
aI72
aI0
aI204
aI0
aI9
aI0
aI128157
aI0
aI0
aI0
aI0
aI0
aI0
aI0
aI0
aI6
aI0
aI0
aI0
aI0
aI1
aI0
aI0
aI0
aI0
aI0
aI0
aI6
aI2
aI0
aI11
aI1
asS'VirusShare_1ec2408ed4039e1d1081c840f0fa4f0e'
p159
(lp160
I155
aI0
aI0
aI1
aI0
aI2
aI0
aI0
aI0
aI0
aI0
aI0
aI0
aI0
aI0
aI0
aI0
aI21
aI0
aI0
aI0
aI1
aI0
aI0
aI1326
aI31
aI0
aI0
aI0
aI0
aI2
aI0
aI0
aI0
aI0
aI0
aI0
aI0
aI0
aI0
aI0
aI0
aI0
aI2
aI0
aI0
aI0
aI1
aI0
aI0
aI0
aI0
aI0
aI0
aI0
aI0
aI0
aI0
aI0
aI0
aI0
aI2
aI0
aI1
aI2
aI0
aI1
aI5
aI0
aI0
aI1
aI0
aI0
aI0
aI0
aI0
aI0
aI0
aI2
aI0
aI1
aI0
aI61
aI72
aI0
aI11331
aI0
aI0
aI0
aI0
aI0
aI1
aI12080
aI1
aI1
aI31
aI0
aI34
aI31
aI61
aI44
aI130
aI72
aI0
aI204
aI0
aI9
aI0
aI12224
aI0
aI0
aI0
aI0
aI0
aI0
aI0
aI0
aI6
aI0
aI0
aI0
aI0
aI1
aI0
aI0
aI0
aI0
aI0
aI0
aI6
aI2
aI0
aI11
aI1
as.