(dp0
S'82998ba1b9c3e4a333e59609c62049df537574ba.pdf'
p1
(lp2
I23
aI0
aI51
aI0
aI0
aI0
aI2
aI0
aI0
aI0
aI0
aI0
aI0
aI0
aI0
aI0
aI0
aI0
aI22
aI0
aI0
aI0
aI1
aI0
aI0
aI1041
aI0
aI0
aI0
aI0
aI0
aI2
aI0
aI0
aI0
aI0
aI0
aI0
aI0
aI0
aI0
aI0
aI0
aI0
aI2
aI0
aI23
aI0
aI1
aI0
aI0
aI0
aI0
aI0
aI0
aI0
aI0
aI0
aI0
aI74
aI2
aI0
aI0
aI3
aI0
aI1
aI0
aI0
aI1
aI441
aI0
aI0
aI1
aI0
aI0
aI0
aI0
aI2
aI0
aI2
aI0
aI1
aI23
aI4327
aI5128
aI0
aI7680
aI0
aI0
aI0
aI0
aI0
aI0
aI13622
aI1
aI1
aI379
aI376
aI406
aI400
aI443
aI409
aI4327
aI527
aI0
aI5128
aI0
aI22
aI0
aI14241
aI0
aI0
aI0
aI0
aI0
aI0
aI0
aI5
aI0
aI0
aI0
aI0
aI0
aI0
aI0
aI0
aI0
aI0
aI0
aI7
aI3
aI4
aI469
aI0
asS'aa76bc9ea09f02f816d3e36579d5f53e147597b9.pdf'
p3
(lp4
I0
aI2320
aI0
aI0
aI0
aI0
aI2
aI0
aI0
aI0
aI571
aI2321
aI0
aI0
aI0
aI0
aI1
aI0
aI0
aI81
aI81
aI0
aI0
aI0
aI11
aI0
aI0
aI0
aI0
aI157
aI0
aI0
aI0
aI0
aI0
aI0
aI0
aI0
aI0
aI0
aI0
aI571
aI0
aI23
aI2
aI0
aI0
aI6596
aI0
aI0
aI0
aI0
aI18
aI20
aI2
aI687
aI0
aI1
aI0
aI687
aI1
aI41766
aI0
aI1
aI0
aI0
aI0
aI0
aI0
aI19
aI0
aI0
aI0
aI2
aI2320
aI64
aI0
aI36
aI0
aI81
aI0
aI0
aI0
aI3382591
aI1
aI0
aI1
aI0
aI0
aI0
aI0
aI0
aI0
aI0
aI0
aI0
aI0
aI0
aI2349
aI3429053
aI0
aI0
aI0
aI0
aI6
aI330987
aI372596
aI157117
aI168288
aI131707
aI135074
aI115669
aI118474
aI98503
aI114759
aI0
aI0
aI0
aI0
aI0
aI0
aI16
aI1
aI0
aI0
aI0
aI0
aI0
aI0
aI4
aI0
aI4
aI46412
aI0
asS'20aa6c07297bb71abab3c71837a7dd97ac6c8096.pdf'
p5
(lp6
I13
aI0
aI43
aI0
aI0
aI0
aI2
aI0
aI0
aI0
aI0
aI0
aI0
aI0
aI0
aI0
aI0
aI0
aI5
aI0
aI0
aI0
aI1
aI0
aI0
aI932
aI0
aI0
aI0
aI0
aI0
aI3
aI0
aI0
aI0
aI0
aI0
aI0
aI0
aI0
aI0
aI0
aI0
aI0
aI3
aI0
aI23
aI0
aI1
aI0
aI0
aI0
aI0
aI0
aI0
aI0
aI0
aI0
aI0
aI0
aI3
aI0
aI0
aI4
aI0
aI1
aI0
aI0
aI1
aI0
aI0
aI0
aI0
aI4
aI0
aI0
aI0
aI0
aI0
aI1
aI0
aI1
aI13
aI306
aI422
aI0
aI4871
aI0
aI0
aI0
aI0
aI0
aI0
aI0
aI1
aI1
aI65
aI43
aI106
aI76
aI259
aI121
aI422
aI306
aI0
aI3054
aI0
aI10
aI0
aI6122
aI0
aI0
aI0
aI0
aI0
aI0
aI1
aI0
aI0
aI0
aI0
aI0
aI0
aI0
aI0
aI0
aI0
aI1
aI0
aI4
aI4
aI2
aI0
aI0
asS'2f96cd823a08118b0e807dec99ace3644bf1e53a.pdf'
p7
(lp8
I245
aI0
aI4
aI0
aI0
aI0
aI2
aI0
aI0
aI0
aI0
aI0
aI0
aI0
aI0
aI0
aI0
aI0
aI1
aI0
aI0
aI0
aI1
aI0
aI0
aI226
aI0
aI0
aI0
aI0
aI0
aI2
aI0
aI0
aI0
aI0
aI0
aI0
aI0
aI0
aI0
aI0
aI0
aI0
aI2
aI0
aI0
aI0
aI1
aI0
aI0
aI0
aI0
aI0
aI0
aI0
aI0
aI0
aI0
aI21
aI2
aI0
aI0
aI230
aI0
aI1
aI0
aI0
aI1
aI4660
aI0
aI0
aI0
aI0
aI0
aI0
aI0
aI2
aI0
aI0
aI0
aI1
aI245
aI49
aI49
aI0
aI6669
aI0
aI0
aI0
aI0
aI0
aI0
aI52648
aI1
aI1
aI320
aI303
aI335
aI323
aI364
aI341
aI3657
aI1466
aI0
aI6324
aI0
aI244
aI0
aI57629
aI0
aI0
aI0
aI0
aI0
aI0
aI0
aI5
aI0
aI0
aI0
aI0
aI0
aI0
aI0
aI0
aI0
aI0
aI0
aI2
aI230
aI1
aI4910
aI0
asS'f5e1ef7e216d24989f1c2a5dce813de8c1201591.pdf'
p9
(lp10
I0
aI99
aI0
aI0
aI0
aI0
aI2
aI0
aI0
aI0
aI6
aI100
aI0
aI0
aI0
aI1
aI1
aI0
aI0
aI74
aI74
aI0
aI0
aI0
aI3
aI0
aI0
aI0
aI0
aI0
aI0
aI0
aI0
aI0
aI0
aI0
aI0
aI0
aI0
aI0
aI0
aI6
aI0
aI23
aI2
aI0
aI0
aI883
aI0
aI0
aI0
aI0
aI29
aI33
aI8
aI7
aI0
aI1
aI0
aI7
aI1
aI1787
aI0
aI1
aI0
aI0
aI0
aI0
aI0
aI2
aI0
aI0
aI0
aI2
aI99
aI238
aI0
aI216
aI0
aI74
aI0
aI0
aI0
aI64283
aI1
aI0
aI1
aI0
aI0
aI0
aI0
aI0
aI0
aI0
aI0
aI0
aI0
aI0
aI117
aI66391
aI0
aI0
aI0
aI0
aI5
aI37129
aI45685
aI3228
aI5673
aI417
aI1173
aI373
aI402
aI329
aI339
aI0
aI0
aI0
aI0
aI0
aI0
aI4
aI1
aI0
aI0
aI0
aI0
aI0
aI0
aI3
aI0
aI4
aI1989
aI0
asS'fe565712752b445f51c331263ab662f98bf5469c.pdf'
p11
(lp12
I32
aI0
aI4
aI0
aI0
aI0
aI2
aI0
aI0
aI0
aI0
aI0
aI0
aI0
aI0
aI0
aI0
aI0
aI30
aI0
aI0
aI0
aI1
aI0
aI0
aI7921
aI0
aI0
aI0
aI0
aI0
aI11
aI0
aI0
aI0
aI0
aI0
aI0
aI0
aI0
aI0
aI0
aI0
aI0
aI11
aI0
aI23
aI0
aI1
aI0
aI1
aI0
aI0
aI0
aI0
aI0
aI0
aI0
aI14
aI38
aI3
aI0
aI0
aI11
aI0
aI1
aI0
aI0
aI1
aI612
aI0
aI0
aI0
aI0
aI0
aI0
aI0
aI4
aI0
aI1
aI0
aI1
aI32
aI164
aI457
aI0
aI69474
aI0
aI0
aI0
aI0
aI0
aI0
aI120572
aI1
aI1
aI938
aI523
aI1478
aI1106
aI19650
aI12555
aI44903
aI42321
aI0
aI49710
aI0
aI31
aI0
aI121417
aI0
aI0
aI0
aI0
aI0
aI0
aI0
aI5
aI0
aI0
aI0
aI0
aI0
aI0
aI0
aI0
aI0
aI0
aI0
aI4
aI11
aI3
aI649
aI0
asS'50c093a45b6f4d9071fedd7dacec7c5705042592.pdf'
p13
(lp14
I13
aI0
aI43
aI0
aI0
aI0
aI2
aI0
aI0
aI0
aI0
aI0
aI0
aI0
aI0
aI0
aI0
aI0
aI5
aI0
aI0
aI0
aI1
aI0
aI0
aI845
aI0
aI0
aI0
aI0
aI0
aI3
aI0
aI0
aI0
aI0
aI0
aI0
aI0
aI0
aI0
aI0
aI0
aI0
aI3
aI0
aI23
aI0
aI1
aI0
aI0
aI0
aI0
aI0
aI0
aI0
aI0
aI0
aI0
aI0
aI3
aI0
aI0
aI4
aI0
aI1
aI0
aI0
aI1
aI0
aI0
aI0
aI0
aI4
aI0
aI0
aI0
aI0
aI0
aI1
aI0
aI1
aI13
aI306
aI422
aI0
aI4002
aI0
aI0
aI0
aI0
aI0
aI0
aI0
aI1
aI1
aI65
aI43
aI106
aI76
aI259
aI121
aI422
aI306
aI0
aI3054
aI0
aI10
aI0
aI5828
aI0
aI0
aI0
aI0
aI0
aI0
aI1
aI0
aI0
aI0
aI0
aI0
aI0
aI0
aI0
aI0
aI0
aI1
aI0
aI4
aI4
aI2
aI0
aI0
asS'1d6699e5b2dba4a67d108086b27b977ce4043222.pdf'
p15
(lp16
I13
aI0
aI43
aI0
aI0
aI0
aI2
aI0
aI0
aI0
aI0
aI0
aI0
aI0
aI0
aI0
aI0
aI0
aI5
aI0
aI0
aI0
aI1
aI0
aI0
aI809
aI0
aI0
aI0
aI0
aI0
aI3
aI0
aI0
aI0
aI0
aI0
aI0
aI0
aI0
aI0
aI0
aI0
aI0
aI3
aI0
aI23
aI0
aI1
aI0
aI0
aI0
aI0
aI0
aI0
aI0
aI0
aI0
aI0
aI0
aI3
aI0
aI0
aI4
aI0
aI1
aI0
aI0
aI1
aI0
aI0
aI0
aI0
aI4
aI0
aI0
aI0
aI0
aI0
aI1
aI0
aI1
aI13
aI306
aI422
aI0
aI3641
aI0
aI0
aI0
aI0
aI0
aI0
aI0
aI1
aI1
aI65
aI43
aI106
aI76
aI259
aI121
aI422
aI306
aI0
aI3054
aI0
aI10
aI0
aI5641
aI0
aI0
aI0
aI0
aI0
aI0
aI1
aI0
aI0
aI0
aI0
aI0
aI0
aI0
aI0
aI0
aI0
aI1
aI0
aI4
aI4
aI2
aI0
aI0
asS'75d4df024e0f3182a6036a793464d0f23c55631e.pdf'
p17
(lp18
I0
aI2262
aI0
aI0
aI0
aI0
aI2
aI0
aI0
aI0
aI274
aI2264
aI0
aI0
aI0
aI2
aI1
aI0
aI0
aI83
aI83
aI0
aI0
aI0
aI5
aI0
aI0
aI0
aI0
aI274
aI0
aI0
aI0
aI0
aI0
aI0
aI0
aI0
aI0
aI0
aI0
aI274
aI0
aI23
aI2
aI0
aI0
aI2886
aI0
aI0
aI0
aI0
aI21
aI33
aI2
aI531
aI0
aI1
aI0
aI531
aI1
aI40722
aI0
aI1
aI0
aI0
aI0
aI0
aI0
aI20
aI0
aI0
aI0
aI2
aI2262
aI40
aI0
aI40
aI0
aI83
aI0
aI0
aI1
aI9840400
aI1
aI0
aI1
aI0
aI0
aI0
aI0
aI0
aI0
aI0
aI0
aI0
aI1
aI0
aI2468
aI9885719
aI0
aI0
aI0
aI0
aI6
aI75728
aI76106
aI75374
aI75498
aI73830
aI74147
aI59686
aI73366
aI54690
aI55614
aI0
aI0
aI0
aI0
aI0
aI0
aI23
aI1
aI0
aI0
aI0
aI0
aI0
aI0
aI4
aI0
aI4
aI45252
aI0
asS'd2ef8f91beee5644cb94f33aa9290ec1fa86f321.pdf'
p19
(lp20
I0
aI95
aI0
aI0
aI0
aI0
aI2
aI0
aI0
aI0
aI28
aI96
aI0
aI0
aI0
aI0
aI1
aI0
aI0
aI78
aI78
aI0
aI0
aI0
aI10
aI0
aI0
aI0
aI0
aI2
aI0
aI0
aI0
aI0
aI0
aI0
aI0
aI0
aI0
aI0
aI0
aI28
aI0
aI23
aI2
aI0
aI0
aI41291
aI0
aI0
aI0
aI0
aI19
aI27
aI9
aI34
aI0
aI1
aI0
aI34
aI1
aI1714
aI0
aI1
aI0
aI0
aI0
aI0
aI0
aI18
aI0
aI0
aI0
aI2
aI95
aI121
aI0
aI38
aI0
aI78
aI0
aI0
aI0
aI3314635
aI1
aI0
aI1
aI0
aI0
aI0
aI0
aI0
aI0
aI0
aI0
aI0
aI0
aI0
aI104
aI3316593
aI0
aI0
aI0
aI0
aI6
aI1730104
aI1984228
aI84877
aI240427
aI42082
aI47303
aI11660
aI15688
aI9223
aI11488
aI0
aI0
aI0
aI0
aI0
aI0
aI0
aI1
aI0
aI0
aI0
aI0
aI0
aI0
aI6
aI0
aI3
aI1910
aI0
asS'6b718c638d327587cca38c9c977471d8ef5014e6.pdf'
p21
(lp22
I2567
aI0
aI3
aI0
aI0
aI0
aI2
aI0
aI0
aI0
aI0
aI0
aI0
aI0
aI0
aI0
aI0
aI0
aI2564
aI0
aI0
aI0
aI1
aI0
aI0
aI538
aI0
aI0
aI0
aI0
aI0
aI149
aI0
aI0
aI0
aI0
aI0
aI0
aI0
aI0
aI0
aI0
aI0
aI0
aI149
aI0
aI23
aI0
aI1
aI0
aI0
aI0
aI0
aI0
aI0
aI0
aI0
aI0
aI27
aI14
aI2
aI0
aI0
aI149
aI0
aI1
aI0
aI0
aI1
aI0
aI0
aI0
aI1
aI2416
aI0
aI0
aI0
aI16
aI0
aI2
aI0
aI1
aI2567
aI1834
aI2676
aI0
aI25483
aI0
aI0
aI0
aI0
aI0
aI0
aI0
aI1
aI1
aI17438
aI17129
aI18522
aI17894
aI20465
aI18570
aI21755
aI21723
aI0
aI22459
aI0
aI2566
aI0
aI395479
aI0
aI0
aI0
aI0
aI0
aI0
aI25
aI0
aI0
aI0
aI0
aI0
aI4
aI0
aI0
aI0
aI0
aI1
aI0
aI5
aI149
aI4
aI0
aI0
asS'7f3f25500be7d57877c6042a4459b9405a9d5125.pdf'
p23
(lp24
I14
aI0
aI4
aI0
aI0
aI0
aI2
aI0
aI0
aI0
aI0
aI0
aI0
aI0
aI0
aI0
aI0
aI0
aI3
aI0
aI0
aI0
aI1
aI0
aI0
aI939
aI0
aI0
aI0
aI0
aI0
aI1
aI0
aI0
aI0
aI0
aI0
aI0
aI0
aI0
aI0
aI0
aI0
aI0
aI1
aI0
aI16
aI0
aI1
aI0
aI0
aI0
aI0
aI0
aI0
aI0
aI0
aI0
aI60
aI36
aI1
aI0
aI0
aI1
aI0
aI1
aI0
aI0
aI1
aI270
aI0
aI0
aI0
aI0
aI0
aI0
aI0
aI3
aI0
aI0
aI0
aI1
aI14
aI0
aI7867
aI0
aI7867
aI0
aI0
aI0
aI0
aI0
aI0
aI6959
aI1
aI1
aI123
aI69
aI237
aI214
aI250
aI246
aI1055
aI1040
aI0
aI1059
aI0
aI13
aI0
aI7392
aI0
aI0
aI0
aI0
aI0
aI0
aI0
aI5
aI0
aI0
aI0
aI0
aI0
aI0
aI0
aI18
aI0
aI0
aI0
aI2
aI1
aI4
aI289
aI0
asS'5d379f386542b1df825aaf5a3a4f18b7714d428e.pdf'
p25
(lp26
I0
aI2
aI0
aI1
aI0
aI0
aI2
aI0
aI0
aI0
aI0
aI1
aI0
aI0
aI0
aI0
aI3
aI0
aI0
aI16988
aI0
aI0
aI0
aI0
aI0
aI1
aI35
aI0
aI0
aI0
aI0
aI0
aI0
aI0
aI0
aI0
aI0
aI1
aI0
aI35
aI0
aI0
aI2
aI5
aI0
aI1185
aI0
aI0
aI0
aI0
aI0
aI20
aI1
aI0
aI36
aI0
aI1
aI0
aI1
aI1
aI39
aI0
aI0
aI1
aI0
aI0
aI0
aI0
aI0
aI0
aI0
aI0
aI2
aI2
aI3288
aI183
aI183
aI0
aI554223
aI389979
aI0
aI152
aI0
aI942567
aI1
aI0
aI1
aI27860
aI7153
aI228079
aI222863
aI244301
aI233503
aI350101
aI244651
aI0
aI0
aI0
aI0
aI942825
aI0
aI0
aI0
aI0
aI6
aI160
aI3288
aI0
aI107
aI0
aI0
aI0
aI0
aI0
aI0
aI0
aI0
aI0
aI0
aI0
aI0
aI0
aI1
aI107
aI0
aI0
aI1
aI0
aI0
aI3
aI35
aI1
aI96
aI0
asS'f721a2acb1389636c06849ae37f78d4423d62234.pdf'
p27
(lp28
I0
aI9
aI0
aI0
aI0
aI0
aI2
aI0
aI0
aI0
aI13
aI10
aI0
aI0
aI0
aI0
aI1
aI0
aI0
aI72
aI72
aI0
aI0
aI0
aI11
aI0
aI0
aI0
aI0
aI0
aI0
aI0
aI0
aI0
aI0
aI0
aI0
aI0
aI0
aI0
aI0
aI13
aI0
aI23
aI2
aI0
aI0
aI3672
aI0
aI0
aI0
aI0
aI33
aI33
aI8
aI15
aI0
aI1
aI0
aI15
aI1
aI165
aI0
aI1
aI0
aI0
aI0
aI0
aI0
aI3
aI0
aI0
aI0
aI2
aI9
aI2114
aI0
aI246
aI0
aI72
aI0
aI0
aI0
aI58941
aI1
aI0
aI1
aI0
aI0
aI0
aI0
aI0
aI0
aI0
aI0
aI0
aI0
aI0
aI34
aI59177
aI0
aI0
aI0
aI0
aI6
aI10291
aI12051
aI10278
aI10286
aI10271
aI10272
aI10268
aI10269
aI6243
aI10210
aI0
aI0
aI0
aI0
aI0
aI0
aI0
aI1
aI0
aI0
aI0
aI0
aI0
aI0
aI4
aI0
aI3
aI189
aI0
asS'60f539ed0c19abf262997cf045d47bf597fcbe3e.pdf'
p29
(lp30
I214
aI0
aI3
aI0
aI0
aI0
aI2
aI0
aI0
aI0
aI0
aI0
aI0
aI0
aI0
aI0
aI0
aI0
aI1
aI0
aI0
aI0
aI1
aI0
aI0
aI9914
aI0
aI0
aI0
aI0
aI0
aI48
aI0
aI0
aI0
aI0
aI0
aI0
aI0
aI0
aI0
aI0
aI0
aI0
aI48
aI0
aI16
aI0
aI1
aI0
aI0
aI0
aI0
aI0
aI0
aI0
aI0
aI0
aI26
aI20
aI2
aI0
aI0
aI48
aI0
aI1
aI0
aI0
aI1
aI4071
aI0
aI0
aI0
aI0
aI0
aI0
aI0
aI14
aI0
aI0
aI0
aI1
aI214
aI345
aI649
aI0
aI149819
aI0
aI0
aI0
aI0
aI0
aI0
aI276428
aI1
aI1
aI50347
aI49906
aI53005
aI52633
aI149819
aI54278
aI149819
aI149819
aI0
aI149819
aI0
aI213
aI0
aI280833
aI0
aI0
aI0
aI0
aI0
aI0
aI0
aI5
aI0
aI0
aI0
aI0
aI0
aI0
aI0
aI7
aI0
aI0
aI0
aI4
aI48
aI4
aI4290
aI0
asS'454c2d6fe0c372291841d9f70cf8d18488875ee0.pdf'
p31
(lp32
I2305
aI0
aI2
aI0
aI0
aI0
aI2
aI0
aI0
aI0
aI0
aI0
aI0
aI0
aI0
aI0
aI0
aI0
aI567
aI0
aI0
aI0
aI1
aI0
aI0
aI791
aI0
aI0
aI0
aI0
aI0
aI476
aI0
aI0
aI0
aI0
aI0
aI0
aI0
aI0
aI0
aI0
aI0
aI0
aI476
aI0
aI8
aI0
aI1
aI0
aI18
aI0
aI0
aI0
aI0
aI0
aI0
aI0
aI0
aI8
aI1
aI0
aI0
aI476
aI0
aI1
aI0
aI0
aI1
aI43801
aI0
aI0
aI0
aI0
aI0
aI0
aI0
aI21
aI0
aI0
aI0
aI1
aI2305
aI150
aI151
aI0
aI452846
aI0
aI0
aI0
aI0
aI0
aI0
aI1030584
aI1
aI1
aI35830
aI34877
aI52189
aI50822
aI84715
aI59957
aI126214
aI84893
aI0
aI273145
aI0
aI2300
aI0
aI1076849
aI0
aI0
aI0
aI0
aI0
aI0
aI0
aI5
aI0
aI0
aI0
aI0
aI0
aI0
aI0
aI8
aI0
aI0
aI0
aI3
aI476
aI4
aI46111
aI0
asS'c0d75bd9d02e495e34dc90553000e8961f175dd4.pdf'
p33
(lp34
I0
aI0
aI0
aI1
aI0
aI0
aI2
aI0
aI0
aI0
aI0
aI1
aI0
aI0
aI0
aI0
aI7
aI0
aI0
aI14406
aI0
aI0
aI0
aI0
aI0
aI1
aI7
aI0
aI0
aI0
aI0
aI0
aI0
aI0
aI0
aI0
aI0
aI0
aI0
aI7
aI0
aI23
aI2
aI0
aI0
aI0
aI0
aI0
aI0
aI0
aI56
aI56
aI1
aI0
aI7
aI0
aI1
aI0
aI0
aI1
aI3
aI0
aI0
aI1
aI0
aI23
aI0
aI0
aI0
aI0
aI0
aI0
aI2
aI0
aI0
aI479
aI2347
aI0
aI295910
aI179801
aI0
aI46
aI2
aI133035
aI1
aI0
aI1
aI272
aI267
aI493
aI479
aI2705
aI2347
aI168942
aI8108
aI0
aI0
aI0
aI0
aI133217
aI0
aI0
aI0
aI1
aI6
aI0
aI0
aI0
aI0
aI0
aI0
aI0
aI0
aI0
aI0
aI0
aI0
aI0
aI0
aI0
aI0
aI4
aI1
aI0
aI0
aI0
aI1
aI0
aI1
aI5
aI7
aI4
aI9
aI0
asS'993f2536f60fa44ef799e58258fdf015e74a36f7.pdf'
p35
(lp36
I131
aI0
aI122
aI0
aI0
aI0
aI2
aI0
aI0
aI0
aI0
aI0
aI0
aI0
aI0
aI0
aI0
aI0
aI1
aI0
aI0
aI0
aI1
aI0
aI0
aI20190
aI0
aI0
aI0
aI0
aI0
aI61
aI0
aI0
aI0
aI0
aI0
aI0
aI0
aI0
aI0
aI0
aI0
aI0
aI61
aI0
aI23
aI0
aI1
aI0
aI34
aI0
aI0
aI0
aI0
aI0
aI0
aI0
aI0
aI184
aI5
aI0
aI0
aI76
aI0
aI1
aI0
aI0
aI1
aI2495
aI0
aI0
aI0
aI0
aI0
aI0
aI0
aI26
aI0
aI0
aI0
aI1
aI131
aI152
aI152
aI0
aI740632
aI0
aI0
aI0
aI0
aI0
aI0
aI1360275
aI1
aI1
aI49802
aI46144
aI87949
aI57659
aI182331
aI140504
aI247085
aI243367
aI0
aI396174
aI0
aI130
aI0
aI1362989
aI0
aI0
aI0
aI0
aI0
aI0
aI0
aI5
aI0
aI0
aI0
aI0
aI0
aI0
aI0
aI0
aI0
aI0
aI0
aI5
aI76
aI2
aI2631
aI0
asS'c74a5439943a78e0563ecad13187ce91844917e7.pdf'
p37
(lp38
I0
aI1
aI867
aI0
aI0
aI2
aI0
aI0
aI0
aI57
aI867
aI0
aI0
aI0
aI0
aI0
aI0
aI1
aI1
aI0
aI11
aI0
aI195
aI73
aI0
aI4195
aI1182
aI23140
aI14572
aI14415
aI14415
aI49459
aI48709
aI5
aI39093
aI0
aI0
aI8
aI1
aI0
aI7320
aI1
aI0
aI78
aI1
aI867
aI23
aI0
aI4
aI0
aI364
aI623
aI30
aI15
aI22
aI8
aI281
aI0
aI1
aI0
aI1
aI41507
aI258
aI1
aI0
aI0
aI3
aI0
aI0
aI0
aI2
aI0
aI0
aI4
aI14
aI1
aI157
aI0
aI132
aI318
aI73
aI0
aI0
aI0
aI0
aI1
aI0
aI1
aI0
aI0
aI0
aI0
aI0
aI0
aI0
aI0
aI0
aI0
aI0
aI935
aI1
aI253419
aI0
aI0
aI8
aI0
aI0
aI23193
aI58478
aI22555
aI23140
aI7444
aI18325
aI6090
aI7424
aI4618
aI5623
aI0
aI0
aI18
aI3
aI0
aI12
aI0
aI318
aI1
aI1
aI6
aI62
aI1
aI4
aI67
aI0
aI0
asS'bd9bb98e00bdfccbb7567bfd23260f5a5ab4d5ee.pdf'
p39
(lp40
I0
aI0
aI0
aI1
aI0
aI0
aI2
aI0
aI0
aI0
aI0
aI1
aI0
aI0
aI0
aI0
aI7
aI0
aI0
aI5293
aI0
aI0
aI0
aI0
aI0
aI5
aI19
aI0
aI0
aI0
aI0
aI0
aI0
aI0
aI0
aI0
aI0
aI0
aI0
aI19
aI0
aI23
aI2
aI2
aI0
aI0
aI0
aI0
aI0
aI0
aI42
aI42
aI5
aI0
aI19
aI0
aI1
aI0
aI0
aI1
aI3
aI0
aI0
aI1
aI0
aI177
aI0
aI0
aI0
aI0
aI0
aI0
aI2
aI0
aI0
aI170
aI172
aI0
aI487787
aI236619
aI0
aI255
aI2
aI427800
aI1
aI0
aI1
aI13349
aI13037
aI24405
aI15054
aI61717
aI56877
aI197462
aI188474
aI0
aI0
aI0
aI0
aI427983
aI0
aI0
aI0
aI1
aI6
aI0
aI0
aI0
aI0
aI0
aI0
aI0
aI0
aI0
aI0
aI0
aI0
aI0
aI0
aI0
aI0
aI9
aI1
aI0
aI0
aI0
aI1
aI0
aI1
aI5
aI19
aI4
aI9
aI0
asS'7f52888c95015970e72875167c9d7b358abf013b.pdf'
p41
(lp42
I2866
aI0
aI3
aI0
aI0
aI0
aI2
aI0
aI0
aI0
aI0
aI0
aI0
aI0
aI0
aI0
aI0
aI0
aI2
aI0
aI0
aI0
aI1
aI0
aI0
aI3135
aI0
aI0
aI0
aI0
aI0
aI397
aI0
aI0
aI0
aI0
aI0
aI0
aI0
aI0
aI0
aI0
aI0
aI0
aI397
aI0
aI23
aI0
aI1
aI0
aI115
aI0
aI0
aI0
aI0
aI0
aI0
aI0
aI22
aI22
aI4
aI0
aI0
aI398
aI0
aI1
aI0
aI0
aI1
aI54460
aI0
aI0
aI0
aI0
aI0
aI0
aI0
aI9
aI0
aI0
aI0
aI1
aI2866
aI519
aI607
aI0
aI249220
aI0
aI0
aI0
aI0
aI0
aI0
aI5320687
aI1
aI1
aI214767
aI193245
aI222726
aI221945
aI227792
aI224053
aI237275
aI231387
aI0
aI241063
aI0
aI2865
aI0
aI5378168
aI0
aI0
aI0
aI0
aI0
aI0
aI0
aI5
aI0
aI0
aI0
aI0
aI0
aI0
aI0
aI0
aI0
aI0
aI0
aI4
aI398
aI3
aI57331
aI0
asS'89dcc1c26e59557d67921954aa28a5ebac100400.pdf'
p43
(lp44
I293
aI0
aI0
aI0
aI0
aI0
aI2
aI0
aI0
aI0
aI0
aI0
aI0
aI0
aI0
aI0
aI0
aI0
aI256
aI0
aI0
aI0
aI1
aI0
aI0
aI5644
aI0
aI0
aI0
aI0
aI0
aI111
aI0
aI0
aI0
aI0
aI0
aI0
aI0
aI0
aI0
aI0
aI0
aI0
aI111
aI0
aI7
aI0
aI1
aI0
aI0
aI0
aI0
aI0
aI0
aI0
aI0
aI0
aI7
aI7
aI1
aI0
aI0
aI111
aI0
aI1
aI0
aI0
aI1
aI5572
aI0
aI0
aI0
aI0
aI0
aI0
aI0
aI7
aI0
aI0
aI0
aI1
aI293
aI410
aI728
aI0
aI451385
aI0
aI0
aI0
aI0
aI0
aI0
aI223268
aI1
aI1
aI8284
aI8284
aI12527
aI9393
aI39783
aI20387
aI150576
aI118912
aI0
aI356393
aI0
aI289
aI0
aI229290
aI0
aI0
aI0
aI0
aI0
aI0
aI0
aI5
aI0
aI0
aI0
aI0
aI0
aI0
aI0
aI0
aI0
aI0
aI0
aI3
aI111
aI3
aI5870
aI0
asS'20e9066644c740bfd077a6776fa89d5ef0f01fc4.pdf'
p45
(lp46
I0
aI10
aI0
aI0
aI0
aI0
aI2
aI0
aI0
aI0
aI369
aI11
aI0
aI0
aI0
aI0
aI1
aI0
aI0
aI78
aI78
aI0
aI0
aI0
aI11
aI0
aI0
aI0
aI0
aI2
aI0
aI0
aI0
aI0
aI0
aI0
aI0
aI0
aI0
aI0
aI0
aI369
aI1
aI23
aI2
aI0
aI0
aI1030
aI0
aI1
aI0
aI0
aI22
aI31
aI8
aI410
aI0
aI1
aI0
aI410
aI1
aI184
aI0
aI1
aI0
aI0
aI0
aI0
aI0
aI190
aI0
aI0
aI0
aI2
aI10
aI151
aI0
aI111
aI0
aI78
aI0
aI0
aI0
aI858626
aI1
aI0
aI1
aI0
aI0
aI0
aI0
aI0
aI0
aI0
aI0
aI0
aI0
aI0
aI995
aI858884
aI0
aI0
aI0
aI0
aI6
aI26756
aI26762
aI26752
aI26756
aI26749
aI26749
aI26693
aI26748
aI9883
aI13891
aI0
aI0
aI0
aI0
aI0
aI0
aI0
aI1
aI0
aI1
aI0
aI0
aI0
aI0
aI4
aI0
aI3
aI210
aI0
asS'9fd4e82b11e86fa27a821c1cf53290571c64ac45.pdf'
p47
(lp48
I100
aI0
aI4
aI0
aI0
aI0
aI2
aI0
aI0
aI0
aI0
aI0
aI0
aI0
aI0
aI0
aI0
aI0
aI1
aI0
aI0
aI0
aI1
aI0
aI0
aI3010
aI0
aI0
aI0
aI0
aI0
aI34
aI0
aI0
aI0
aI0
aI0
aI0
aI0
aI0
aI0
aI0
aI0
aI0
aI34
aI0
aI23
aI0
aI1
aI0
aI6
aI0
aI0
aI0
aI0
aI0
aI0
aI0
aI68
aI140
aI2
aI0
aI0
aI35
aI0
aI1
aI0
aI0
aI1
aI1905
aI0
aI0
aI0
aI0
aI0
aI0
aI0
aI11
aI0
aI0
aI0
aI1
aI100
aI138
aI138
aI0
aI73546
aI0
aI0
aI0
aI0
aI0
aI0
aI287483
aI1
aI1
aI4046
aI2769
aI7133
aI6749
aI25569
aI7525
aI40210
aI31340
aI0
aI73457
aI0
aI99
aI0
aI289640
aI0
aI0
aI0
aI0
aI0
aI0
aI0
aI5
aI0
aI0
aI0
aI0
aI0
aI0
aI0
aI6
aI0
aI0
aI0
aI5
aI35
aI5
aI2010
aI0
asS'0d85f8442bd61bec1e23d01c0839c2703c8d3ab1.pdf'
p49
(lp50
I0
aI0
aI0
aI1
aI0
aI0
aI2
aI0
aI0
aI0
aI0
aI1
aI0
aI0
aI0
aI0
aI7
aI0
aI0
aI7775
aI0
aI0
aI0
aI0
aI0
aI1
aI38
aI0
aI0
aI0
aI0
aI0
aI0
aI0
aI0
aI0
aI0
aI0
aI0
aI38
aI0
aI23
aI2
aI4
aI0
aI0
aI0
aI0
aI0
aI0
aI42
aI42
aI1
aI0
aI39
aI0
aI1
aI0
aI0
aI1
aI3
aI0
aI0
aI1
aI0
aI121
aI0
aI0
aI0
aI0
aI0
aI0
aI2
aI0
aI0
aI170
aI171
aI0
aI814509
aI316902
aI0
aI273
aI2
aI319451
aI1
aI0
aI1
aI49469
aI11546
aI58846
aI54709
aI168942
aI75525
aI271631
aI226195
aI0
aI0
aI0
aI0
aI319635
aI0
aI0
aI0
aI1
aI6
aI0
aI0
aI0
aI0
aI0
aI0
aI0
aI0
aI0
aI0
aI0
aI0
aI0
aI0
aI0
aI0
aI12
aI1
aI0
aI0
aI0
aI1
aI0
aI1
aI5
aI39
aI4
aI9
aI0
asS'03d389d998ee2f4e95f54d1a3e86d89e8bf9934f.pdf'
p51
(lp52
I0
aI0
aI0
aI1
aI0
aI0
aI2
aI0
aI0
aI0
aI0
aI1
aI0
aI0
aI0
aI0
aI7
aI0
aI0
aI8424
aI0
aI0
aI0
aI0
aI0
aI3
aI174
aI0
aI0
aI0
aI0
aI0
aI0
aI0
aI0
aI0
aI0
aI0
aI0
aI174
aI0
aI16
aI2
aI69
aI0
aI0
aI0
aI0
aI0
aI0
aI56
aI56
aI3
aI0
aI179
aI0
aI1
aI0
aI0
aI1
aI3
aI0
aI0
aI1
aI0
aI935
aI0
aI0
aI0
aI0
aI0
aI0
aI2
aI0
aI0
aI168
aI168
aI0
aI779719
aI725486
aI0
aI1324
aI1
aI5320537
aI1
aI0
aI1
aI434053
aI380726
aI532052
aI449659
aI661706
aI601923
aI717654
aI678099
aI0
aI0
aI0
aI0
aI5321007
aI0
aI0
aI0
aI2
aI6
aI0
aI0
aI0
aI0
aI0
aI0
aI0
aI0
aI0
aI0
aI0
aI0
aI0
aI0
aI0
aI0
aI6
aI1
aI0
aI0
aI0
aI1
aI0
aI1
aI5
aI179
aI4
aI9
aI0
asS'eb8053b6f58057eb7b89532f9726af84abe6f02a.pdf'
p53
(lp54
I0
aI195
aI0
aI0
aI0
aI0
aI2
aI0
aI0
aI0
aI108
aI196
aI0
aI0
aI0
aI0
aI1
aI0
aI0
aI79
aI79
aI0
aI0
aI0
aI10
aI0
aI0
aI0
aI0
aI14
aI0
aI0
aI0
aI0
aI0
aI0
aI0
aI0
aI0
aI0
aI0
aI108
aI0
aI23
aI2
aI0
aI0
aI7627
aI0
aI0
aI0
aI0
aI26
aI21
aI1
aI141
aI0
aI1
aI0
aI141
aI1
aI3515
aI0
aI1
aI0
aI0
aI0
aI0
aI0
aI15
aI0
aI0
aI0
aI2
aI195
aI56
aI0
aI56
aI0
aI79
aI0
aI0
aI0
aI1217009
aI1
aI0
aI1
aI0
aI0
aI0
aI0
aI0
aI0
aI0
aI0
aI0
aI0
aI0
aI242
aI1221035
aI0
aI0
aI0
aI0
aI5
aI160792
aI329295
aI105931
aI144189
aI56176
aI94302
aI54170
aI55671
aI52215
aI53146
aI0
aI0
aI0
aI0
aI0
aI0
aI0
aI1
aI0
aI0
aI0
aI0
aI0
aI0
aI5
aI0
aI3
aI3909
aI0
asS'7de270a2c1fa3f09d9e6f71c143b7f38e6fa2253.pdf'
p55
(lp56
I0
aI0
aI0
aI1
aI0
aI0
aI2
aI0
aI0
aI0
aI0
aI1
aI0
aI0
aI0
aI0
aI5
aI0
aI0
aI22333
aI0
aI0
aI0
aI0
aI0
aI3
aI205
aI0
aI0
aI0
aI0
aI0
aI0
aI0
aI0
aI0
aI0
aI0
aI0
aI205
aI0
aI23
aI2
aI2
aI0
aI0
aI0
aI0
aI0
aI0
aI42
aI42
aI3
aI0
aI205
aI0
aI1
aI0
aI0
aI1
aI3
aI0
aI0
aI1
aI0
aI2552
aI0
aI0
aI0
aI0
aI0
aI0
aI2
aI0
aI0
aI174
aI174
aI0
aI1035694
aI1035694
aI0
aI2918
aI3
aI4647966
aI1
aI0
aI1
aI1035694
aI1035694
aI1035694
aI1035694
aI1035694
aI1035694
aI1035694
aI1035694
aI0
aI0
aI0
aI0
aI4648154
aI0
aI0
aI0
aI6
aI6
aI0
aI0
aI0
aI0
aI0
aI0
aI0
aI0
aI0
aI0
aI0
aI0
aI0
aI0
aI0
aI0
aI7
aI1
aI0
aI0
aI0
aI1
aI0
aI1
aI5
aI205
aI4
aI9
aI0
asS'6fd21cc84a258cd9ecf6642e799df26fddb26f0c.pdf'
p57
(lp58
I0
aI19
aI0
aI0
aI0
aI0
aI2
aI0
aI0
aI0
aI21
aI20
aI0
aI0
aI0
aI0
aI1
aI0
aI0
aI77
aI77
aI0
aI0
aI0
aI34
aI0
aI0
aI0
aI0
aI0
aI0
aI0
aI0
aI0
aI0
aI0
aI0
aI0
aI0
aI0
aI0
aI21
aI0
aI0
aI2
aI0
aI0
aI279236
aI0
aI0
aI0
aI0
aI0
aI0
aI0
aI21
aI0
aI1
aI0
aI21
aI1
aI365
aI0
aI1
aI0
aI0
aI0
aI0
aI0
aI8
aI0
aI0
aI0
aI2
aI19
aI394
aI0
aI261
aI0
aI77
aI0
aI0
aI0
aI3621076
aI1
aI0
aI1
aI0
aI0
aI0
aI0
aI0
aI0
aI0
aI0
aI0
aI0
aI0
aI45
aI3621584
aI0
aI0
aI0
aI0
aI5
aI1755107
aI7680159
aI762012
aI1035156
aI159353
aI272810
aI86033
aI122532
aI77423
aI80633
aI0
aI0
aI0
aI0
aI0
aI0
aI0
aI1
aI0
aI0
aI0
aI0
aI0
aI0
aI4
aI0
aI0
aI389
aI0
asS'46cbda5b4d28f75517cad3e0af5de71a8faf803f.pdf'
p59
(lp60
I0
aI0
aI0
aI1
aI0
aI0
aI2
aI0
aI0
aI0
aI0
aI1
aI0
aI0
aI0
aI0
aI7
aI0
aI0
aI17855
aI0
aI0
aI0
aI0
aI0
aI3
aI150
aI0
aI0
aI0
aI0
aI0
aI0
aI0
aI0
aI0
aI0
aI0
aI0
aI150
aI0
aI23
aI2
aI4
aI0
aI0
aI0
aI0
aI0
aI0
aI42
aI42
aI3
aI0
aI150
aI0
aI1
aI0
aI0
aI1
aI3
aI0
aI0
aI1
aI0
aI0
aI0
aI0
aI0
aI0
aI0
aI0
aI2
aI0
aI0
aI170
aI170
aI0
aI746459
aI169550
aI0
aI363
aI2
aI1353919
aI1
aI0
aI1
aI93225
aI91842
aI105142
aI103755
aI114371
aI109466
aI120576
aI116374
aI0
aI0
aI0
aI0
aI1354106
aI0
aI0
aI0
aI0
aI6
aI0
aI0
aI0
aI0
aI0
aI0
aI0
aI0
aI0
aI0
aI0
aI0
aI0
aI0
aI0
aI0
aI26
aI1
aI0
aI0
aI0
aI1
aI0
aI1
aI5
aI150
aI4
aI9
aI0
asS'8fbacddcafd64a2213a78ef3c4b99c106c883ea7.pdf'
p61
(lp62
I64
aI0
aI2
aI0
aI0
aI0
aI2
aI0
aI0
aI0
aI0
aI0
aI0
aI0
aI0
aI0
aI0
aI0
aI44
aI0
aI0
aI0
aI1
aI0
aI0
aI3363
aI0
aI0
aI0
aI0
aI0
aI7
aI0
aI0
aI0
aI0
aI0
aI0
aI0
aI0
aI0
aI0
aI0
aI0
aI7
aI0
aI23
aI0
aI1
aI0
aI0
aI0
aI0
aI0
aI0
aI0
aI0
aI0
aI42
aI18
aI1
aI0
aI0
aI10
aI0
aI1
aI0
aI0
aI1
aI1220
aI0
aI0
aI0
aI0
aI0
aI0
aI0
aI6
aI0
aI0
aI0
aI1
aI64
aI162
aI441
aI0
aI96291
aI0
aI0
aI0
aI0
aI0
aI0
aI36106
aI1
aI1
aI466
aI441
aI651
aI516
aI4261
aI952
aI16734
aI8641
aI0
aI77214
aI0
aI63
aI0
aI37466
aI0
aI0
aI0
aI0
aI0
aI0
aI0
aI5
aI0
aI0
aI0
aI0
aI0
aI0
aI0
aI0
aI0
aI0
aI0
aI4
aI10
aI3
aI1289
aI0
asS'8bc197c87ad53b8ea2615bfdda966207a4523d6e.pdf'
p63
(lp64
I0
aI1
aI0
aI0
aI0
aI2
aI0
aI0
aI0
aI626
aI1458
aI0
aI0
aI9
aI0
aI0
aI0
aI0
aI1
aI0
aI11
aI0
aI82
aI82
aI0
aI125549
aI118293
aI274947
aI142594
aI129410
aI126445
aI633959
aI589019
aI11
aI374503
aI0
aI0
aI0
aI0
aI119
aI18362
aI0
aI0
aI692
aI0
aI1458
aI23
aI0
aI3
aI0
aI7737
aI0
aI24
aI79
aI21
aI1
aI859
aI0
aI1
aI0
aI0
aI391819
aI780
aI1
aI21
aI0
aI2
aI0
aI0
aI0
aI23
aI0
aI0
aI3
aI66
aI1
aI46
aI0
aI36
aI82
aI0
aI0
aI0
aI0
aI9878807
aI1
aI0
aI1
aI1
aI0
aI0
aI0
aI0
aI0
aI0
aI0
aI0
aI0
aI0
aI1726
aI0
aI9884848
aI0
aI0
aI1
aI0
aI5
aI941674
aI2091713
aI619015
aI631719
aI544065
aI571059
aI354755
aI386623
aI177810
aI314295
aI0
aI0
aI0
aI2
aI0
aI0
aI0
aI0
aI0
aI0
aI6
aI55
aI0
aI3
aI179
aI3978
aI0
asS'a66b943cdf84cf3781c323afb945455d8211893b.pdf'
p65
(lp66
I56
aI0
aI33
aI0
aI0
aI0
aI2
aI0
aI0
aI0
aI0
aI0
aI0
aI0
aI0
aI0
aI0
aI0
aI55
aI0
aI0
aI0
aI1
aI0
aI0
aI5081
aI0
aI0
aI0
aI0
aI0
aI42
aI0
aI0
aI0
aI0
aI0
aI0
aI0
aI0
aI0
aI0
aI0
aI0
aI42
aI0
aI23
aI0
aI1
aI0
aI4
aI0
aI0
aI0
aI0
aI0
aI0
aI0
aI12
aI4
aI2
aI0
aI0
aI42
aI0
aI1
aI0
aI0
aI1
aI1012
aI0
aI0
aI0
aI0
aI0
aI0
aI0
aI3
aI0
aI0
aI0
aI1
aI56
aI55
aI61
aI0
aI72020
aI0
aI0
aI0
aI0
aI0
aI1
aI165085
aI1
aI1
aI1060
aI826
aI7482
aI1345
aI15684
aI9976
aI72020
aI18378
aI0
aI72020
aI0
aI55
aI0
aI166288
aI0
aI0
aI0
aI0
aI0
aI0
aI0
aI5
aI0
aI0
aI0
aI0
aI0
aI0
aI0
aI4
aI0
aI0
aI0
aI3
aI42
aI4
aI1129
aI0
asS'5b1ac70d5a57958c5a4f25ad7bac05070bf163d4.pdf'
p67
(lp68
I42
aI0
aI33
aI0
aI0
aI0
aI2
aI0
aI0
aI0
aI0
aI0
aI0
aI0
aI0
aI0
aI0
aI0
aI39
aI0
aI0
aI0
aI1
aI0
aI0
aI12649
aI0
aI0
aI0
aI0
aI0
aI15
aI0
aI0
aI0
aI0
aI0
aI0
aI0
aI0
aI0
aI0
aI0
aI0
aI15
aI0
aI16
aI0
aI1
aI0
aI0
aI0
aI0
aI0
aI0
aI0
aI0
aI0
aI31
aI64
aI4
aI0
aI0
aI15
aI0
aI1
aI0
aI0
aI1
aI0
aI0
aI0
aI0
aI0
aI0
aI0
aI0
aI12
aI0
aI0
aI0
aI1
aI42
aI413
aI426
aI0
aI114406
aI0
aI0
aI0
aI0
aI0
aI0
aI0
aI1
aI1
aI2561
aI1074
aI3863
aI3336
aI58209
aI10535
aI103238
aI100996
aI0
aI112631
aI0
aI41
aI0
aI159901
aI0
aI0
aI0
aI0
aI0
aI0
aI0
aI0
aI0
aI0
aI0
aI0
aI0
aI0
aI0
aI0
aI0
aI1
aI0
aI6
aI15
aI3
aI0
aI0
asS'81b6d9433899683dfdac9f922ea1bf462bd841d3.pdf'
p69
(lp70
I9595
aI0
aI5
aI0
aI0
aI0
aI2
aI0
aI0
aI0
aI0
aI0
aI0
aI0
aI0
aI0
aI0
aI0
aI9455
aI0
aI0
aI0
aI1
aI2
aI1
aI490
aI0
aI0
aI0
aI0
aI0
aI111
aI0
aI0
aI0
aI0
aI0
aI0
aI0
aI0
aI0
aI0
aI0
aI0
aI111
aI0
aI23
aI0
aI1
aI0
aI2
aI0
aI0
aI0
aI0
aI0
aI0
aI0
aI73
aI87
aI9
aI0
aI0
aI111
aI0
aI1
aI0
aI0
aI1
aI0
aI0
aI0
aI1
aI9481
aI0
aI0
aI0
aI14
aI0
aI1
aI0
aI1
aI9595
aI157
aI166
aI0
aI811474
aI0
aI0
aI0
aI0
aI0
aI0
aI0
aI1
aI1
aI68395
aI65654
aI71122
aI70987
aI82991
aI74284
aI113361
aI100429
aI0
aI147133
aI0
aI9594
aI0
aI1708955
aI0
aI0
aI0
aI0
aI0
aI0
aI48
aI0
aI0
aI0
aI0
aI0
aI0
aI0
aI0
aI11
aI0
aI1
aI0
aI7
aI111
aI4
aI0
aI0
asS'cde02f73e42ed61a6d5641bc30de258c3de7919e.pdf'
p71
(lp72
I478
aI0
aI7
aI0
aI0
aI0
aI2
aI0
aI0
aI0
aI0
aI0
aI0
aI0
aI0
aI0
aI0
aI0
aI1
aI0
aI0
aI0
aI1
aI0
aI0
aI102854
aI0
aI0
aI0
aI0
aI0
aI57
aI0
aI0
aI0
aI0
aI0
aI0
aI0
aI0
aI0
aI0
aI0
aI0
aI57
aI0
aI23
aI0
aI1
aI0
aI2
aI0
aI0
aI0
aI0
aI0
aI0
aI0
aI50
aI50
aI8
aI0
aI0
aI57
aI0
aI1
aI0
aI0
aI1
aI9087
aI0
aI0
aI0
aI0
aI0
aI0
aI0
aI13
aI0
aI0
aI0
aI1
aI478
aI169
aI169
aI0
aI2964655
aI0
aI0
aI0
aI0
aI0
aI0
aI1283941
aI1
aI1
aI2876335
aI2876335
aI2876335
aI2876335
aI2876335
aI2876335
aI2964655
aI2876335
aI0
aI2964655
aI0
aI476
aI0
aI1293663
aI0
aI0
aI0
aI0
aI0
aI0
aI0
aI5
aI0
aI0
aI0
aI0
aI0
aI0
aI0
aI12
aI0
aI1
aI0
aI5
aI57
aI4
aI9570
aI0
asS'b19ae24759cbbd3ad5a7f76e84d8a38a6c7c5c35.pdf'
p73
(lp74
I0
aI552
aI0
aI553
aI0
aI0
aI2
aI0
aI0
aI0
aI48
aI553
aI0
aI0
aI0
aI1
aI1
aI0
aI0
aI314
aI77
aI0
aI0
aI0
aI10
aI0
aI0
aI5
aI1
aI1
aI0
aI0
aI0
aI0
aI0
aI0
aI0
aI0
aI0
aI0
aI0
aI49
aI1
aI23
aI2
aI0
aI0
aI946
aI0
aI550
aI0
aI0
aI29
aI21
aI5
aI50
aI0
aI1
aI0
aI49
aI1
aI0
aI0
aI1
aI0
aI0
aI0
aI0
aI0
aI8
aI0
aI0
aI0
aI2
aI552
aI96
aI0
aI56
aI0
aI551
aI77
aI0
aI0
aI0
aI1
aI0
aI1
aI0
aI0
aI0
aI0
aI0
aI0
aI0
aI0
aI0
aI0
aI0
aI614
aI167594
aI0
aI0
aI0
aI0
aI0
aI14842
aI342783
aI11299
aI11377
aI11035
aI11061
aI10402
aI10915
aI9177
aI9874
aI0
aI0
aI0
aI0
aI0
aI0
aI26
aI1
aI0
aI19
aI0
aI551
aI0
aI1
aI6
aI1
aI4
aI0
aI0
asS'9ad84d6ac5d2c7ec5abde59d66eeba25e33430ad.PDF'
p75
(lp76
I0
aI78
aI0
aI123
aI0
aI0
aI2
aI0
aI0
aI0
aI9
aI0
aI0
aI0
aI0
aI1
aI2
aI0
aI0
aI7963
aI0
aI0
aI0
aI3
aI0
aI0
aI1
aI34
aI0
aI0
aI0
aI0
aI0
aI0
aI0
aI0
aI0
aI0
aI122
aI0
aI43
aI0
aI0
aI2
aI9
aI0
aI918
aI0
aI0
aI0
aI0
aI0
aI0
aI0
aI0
aI43
aI0
aI1
aI0
aI9
aI1
aI1488
aI0
aI1
aI0
aI0
aI0
aI0
aI10
aI0
aI0
aI0
aI2
aI78
aI7864
aI62
aI137
aI0
aI66942
aI66330
aI0
aI199
aI0
aI502677
aI1
aI0
aI1
aI63434
aI63406
aI64089
aI63619
aI64887
aI64564
aI65891
aI65356
aI0
aI0
aI0
aI791
aI504429
aI0
aI0
aI0
aI0
aI5
aI7974
aI7975
aI7962
aI7962
aI7955
aI7962
aI7864
aI7952
aI567
aI791
aI0
aI0
aI0
aI0
aI0
aI0
aI0
aI1
aI0
aI0
aI0
aI1
aI0
aI0
aI3
aI34
aI0
aI1571
aI0
asS'a8c5ab996a2da7649c74babb03dfde7bf2ff4fe8.pdf'
p77
(lp78
I0
aI3177
aI0
aI0
aI0
aI0
aI2
aI0
aI0
aI0
aI54
aI3178
aI0
aI0
aI0
aI0
aI1
aI0
aI0
aI78
aI78
aI0
aI0
aI0
aI11
aI0
aI0
aI0
aI0
aI0
aI0
aI0
aI0
aI0
aI0
aI0
aI0
aI0
aI0
aI0
aI0
aI54
aI1
aI23
aI2
aI0
aI0
aI350
aI0
aI3096
aI0
aI0
aI29
aI31
aI8
aI55
aI0
aI1
aI0
aI55
aI1
aI57192
aI0
aI1
aI0
aI0
aI0
aI0
aI0
aI6
aI0
aI0
aI0
aI2
aI3177
aI732
aI0
aI512
aI0
aI78
aI0
aI0
aI0
aI225558
aI1
aI0
aI1
aI0
aI0
aI0
aI0
aI0
aI0
aI0
aI0
aI0
aI0
aI0
aI3198
aI289160
aI0
aI0
aI0
aI0
aI6
aI140426
aI279906
aI30043
aI30213
aI29005
aI29147
aI27504
aI28976
aI19760
aI27280
aI0
aI0
aI0
aI0
aI0
aI0
aI9
aI1
aI0
aI31
aI0
aI0
aI0
aI0
aI4
aI0
aI4
aI63552
aI0
asS'aa27efb1e18236d7386f332d951c5bb88b4abfbd.pdf'
p79
(lp80
I0
aI342
aI0
aI0
aI0
aI0
aI2
aI0
aI0
aI0
aI228
aI343
aI0
aI0
aI0
aI0
aI1
aI0
aI0
aI79
aI79
aI0
aI0
aI0
aI11
aI0
aI0
aI0
aI0
aI126
aI0
aI0
aI0
aI0
aI0
aI0
aI0
aI0
aI0
aI0
aI0
aI228
aI0
aI23
aI2
aI0
aI0
aI29169
aI0
aI0
aI0
aI0
aI26
aI33
aI3
aI230
aI0
aI1
aI0
aI230
aI1
aI6161
aI0
aI1
aI0
aI0
aI0
aI0
aI0
aI13
aI0
aI0
aI0
aI2
aI342
aI142
aI0
aI50
aI0
aI79
aI0
aI0
aI0
aI3535503
aI1
aI0
aI1
aI0
aI0
aI0
aI0
aI0
aI0
aI0
aI0
aI0
aI0
aI0
aI372
aI3542403
aI0
aI0
aI0
aI0
aI6
aI882260
aI2362690
aI695210
aI699884
aI620252
aI656600
aI596036
aI618776
aI559646
aI577697
aI0
aI0
aI0
aI0
aI0
aI0
aI7
aI1
aI0
aI0
aI0
aI0
aI0
aI0
aI4
aI0
aI4
aI6851
aI0
asS'93ad9adc80afba637be389e0956405f6c5713562.pdf'
p81
(lp82
I85
aI0
aI3
aI0
aI0
aI0
aI2
aI0
aI0
aI0
aI0
aI0
aI0
aI0
aI0
aI0
aI0
aI0
aI1
aI0
aI0
aI0
aI1
aI0
aI0
aI7649
aI0
aI0
aI0
aI0
aI0
aI23
aI0
aI0
aI0
aI0
aI0
aI0
aI0
aI0
aI0
aI0
aI0
aI0
aI23
aI0
aI0
aI0
aI1
aI0
aI2
aI0
aI0
aI0
aI0
aI0
aI0
aI0
aI0
aI28
aI8
aI0
aI0
aI23
aI0
aI1
aI0
aI0
aI1
aI1534
aI0
aI0
aI0
aI0
aI0
aI0
aI0
aI11
aI0
aI0
aI0
aI1
aI85
aI182
aI217
aI0
aI298105
aI0
aI0
aI0
aI0
aI0
aI1
aI262265
aI1
aI1
aI757
aI748
aI819
aI794
aI2464
aI2010
aI21574
aI2649
aI0
aI293229
aI0
aI83
aI0
aI264045
aI0
aI0
aI0
aI0
aI0
aI0
aI0
aI5
aI0
aI0
aI0
aI0
aI0
aI0
aI0
aI0
aI0
aI0
aI0
aI7
aI23
aI1
aI1708
aI0
asS'0db136491c21a2cd35c7046d28c08dc9190a2204.pdf'
p83
(lp84
I0
aI0
aI0
aI1
aI0
aI0
aI2
aI0
aI0
aI0
aI0
aI1
aI0
aI0
aI0
aI0
aI7
aI0
aI0
aI3706
aI0
aI0
aI0
aI0
aI0
aI7
aI50
aI0
aI0
aI0
aI0
aI0
aI0
aI0
aI0
aI0
aI0
aI0
aI0
aI50
aI0
aI16
aI2
aI2
aI0
aI0
aI0
aI0
aI0
aI0
aI56
aI56
aI7
aI0
aI120
aI0
aI1
aI0
aI0
aI1
aI3
aI0
aI0
aI1
aI0
aI594
aI0
aI0
aI0
aI0
aI0
aI0
aI2
aI0
aI0
aI128
aI128
aI0
aI869727
aI655425
aI0
aI773
aI2
aI491016
aI1
aI0
aI1
aI14323
aI12884
aI29023
aI14418
aI39774
aI32268
aI598747
aI142197
aI0
aI0
aI0
aI0
aI491200
aI0
aI0
aI0
aI2
aI6
aI0
aI0
aI0
aI0
aI0
aI0
aI0
aI0
aI0
aI0
aI0
aI0
aI0
aI0
aI0
aI0
aI0
aI1
aI0
aI0
aI0
aI1
aI0
aI1
aI5
aI120
aI3
aI9
aI0
asS'1ad15d58d3a3782e500c3f3375dad9f5fe34e17f.pdf'
p85
(lp86
I0
aI0
aI0
aI1
aI0
aI0
aI2
aI0
aI0
aI0
aI0
aI1
aI0
aI0
aI0
aI0
aI7
aI0
aI0
aI20966
aI0
aI0
aI0
aI0
aI0
aI3
aI21
aI0
aI0
aI0
aI0
aI0
aI0
aI0
aI0
aI0
aI0
aI0
aI0
aI21
aI0
aI23
aI2
aI0
aI0
aI0
aI0
aI0
aI0
aI0
aI42
aI42
aI3
aI0
aI21
aI0
aI1
aI0
aI0
aI1
aI3
aI0
aI0
aI1
aI0
aI174
aI0
aI0
aI0
aI0
aI0
aI0
aI2
aI0
aI0
aI1692
aI1705
aI0
aI845166
aI803179
aI0
aI221
aI2
aI392534
aI1
aI0
aI1
aI167746
aI32478
aI286018
aI180474
aI511038
aI441534
aI619044
aI530521
aI0
aI0
aI0
aI0
aI392717
aI0
aI0
aI0
aI1
aI6
aI0
aI0
aI0
aI0
aI0
aI0
aI0
aI0
aI0
aI0
aI0
aI0
aI0
aI0
aI0
aI0
aI6
aI1
aI0
aI0
aI0
aI1
aI0
aI1
aI5
aI21
aI4
aI9
aI0
asS'6192dcdc512fd196f6c74cc1ddee81d969efd5f2.pdf'
p87
(lp88
I488
aI0
aI3
aI0
aI0
aI0
aI2
aI0
aI0
aI0
aI0
aI0
aI0
aI0
aI0
aI0
aI0
aI0
aI1
aI0
aI0
aI0
aI1
aI0
aI0
aI549
aI0
aI0
aI0
aI0
aI0
aI405
aI0
aI0
aI0
aI0
aI0
aI0
aI0
aI0
aI0
aI0
aI0
aI0
aI405
aI0
aI16
aI0
aI1
aI0
aI1
aI0
aI0
aI0
aI0
aI0
aI0
aI0
aI24
aI20
aI2
aI0
aI0
aI405
aI0
aI1
aI0
aI0
aI1
aI9277
aI0
aI0
aI0
aI0
aI0
aI0
aI0
aI20
aI0
aI0
aI0
aI1
aI488
aI138
aI170
aI0
aI58074
aI0
aI0
aI0
aI0
aI0
aI0
aI205509
aI1
aI1
aI1668
aI1550
aI4111
aI1731
aI4820
aI4625
aI11639
aI6957
aI0
aI21847
aI0
aI487
aI0
aI215394
aI0
aI0
aI0
aI0
aI0
aI0
aI0
aI5
aI0
aI0
aI0
aI0
aI0
aI0
aI0
aI10
aI0
aI0
aI0
aI4
aI405
aI4
aI9770
aI0
asS'313d7bc105551ae5ad4493cab1b8e055f522aa77.pdf'
p89
(lp90
I0
aI83
aI0
aI0
aI0
aI0
aI2
aI0
aI0
aI0
aI34
aI84
aI0
aI5
aI0
aI0
aI1
aI0
aI0
aI75
aI75
aI0
aI0
aI0
aI11
aI0
aI0
aI0
aI0
aI0
aI0
aI0
aI0
aI0
aI0
aI0
aI0
aI0
aI0
aI0
aI0
aI34
aI0
aI23
aI2
aI0
aI0
aI3206
aI0
aI0
aI0
aI0
aI26
aI33
aI8
aI35
aI0
aI1
aI0
aI35
aI1
aI1498
aI0
aI1
aI0
aI0
aI0
aI0
aI0
aI3
aI0
aI0
aI0
aI2
aI83
aI1284
aI0
aI412
aI0
aI75
aI0
aI0
aI0
aI136773
aI1
aI0
aI1
aI0
aI0
aI0
aI0
aI0
aI0
aI0
aI0
aI0
aI0
aI0
aI102
aI138491
aI0
aI0
aI0
aI0
aI6
aI14365
aI14738
aI14001
aI14025
aI13949
aI13952
aI12797
aI13201
aI12772
aI12780
aI0
aI0
aI0
aI0
aI0
aI0
aI7
aI1
aI0
aI0
aI0
aI0
aI0
aI0
aI4
aI0
aI4
aI1670
aI0
asS'266e60de2abac644c2c7c24a89e9c702dce19367.pdf'
p91
(lp92
I4106
aI0
aI11
aI0
aI0
aI0
aI2
aI0
aI0
aI0
aI0
aI0
aI0
aI0
aI0
aI0
aI0
aI0
aI3950
aI0
aI0
aI0
aI1
aI0
aI0
aI3488
aI0
aI0
aI0
aI0
aI0
aI194
aI0
aI0
aI0
aI0
aI0
aI0
aI0
aI0
aI0
aI0
aI0
aI0
aI194
aI0
aI23
aI0
aI1
aI0
aI0
aI0
aI0
aI0
aI0
aI0
aI0
aI0
aI58
aI22
aI3
aI0
aI0
aI203
aI0
aI1
aI0
aI0
aI1
aI0
aI0
aI0
aI0
aI3680
aI0
aI0
aI0
aI26
aI0
aI0
aI0
aI1
aI4106
aI56
aI56
aI0
aI644140
aI0
aI0
aI0
aI0
aI0
aI0
aI0
aI1
aI1
aI499198
aI305711
aI619640
aI499198
aI619640
aI619640
aI619689
aI619689
aI0
aI619689
aI0
aI3897
aI0
aI1678064
aI0
aI0
aI0
aI0
aI0
aI0
aI57
aI0
aI0
aI0
aI0
aI0
aI0
aI0
aI0
aI12
aI0
aI1
aI0
aI6
aI203
aI5
aI0
aI0
asS'c63b72d1dc7a12b0369396ebe8274808c2d5308b.pdf'
p93
(lp94
I0
aI2
aI1
aI0
aI0
aI2
aI0
aI0
aI0
aI0
aI1
aI0
aI0
aI8
aI0
aI0
aI0
aI0
aI7
aI0
aI32
aI0
aI1536
aI0
aI30584
aI29615
aI212714
aI212714
aI212714
aI212714
aI212714
aI212714
aI212714
aI212714
aI0
aI0
aI4
aI20
aI0
aI23445
aI0
aI0
aI44
aI0
aI1
aI23
aI0
aI3
aI0
aI0
aI0
aI42
aI41
aI42
aI4
aI61
aI0
aI1
aI0
aI0
aI0
aI1
aI39
aI0
aI0
aI2
aI0
aI1797
aI0
aI5
aI0
aI0
aI3
aI24
aI2
aI0
aI407
aI2587
aI1153232
aI904686
aI0
aI0
aI1944
aI1
aI221036
aI1
aI0
aI1
aI0
aI40006
aI37922
aI40950
aI40281
aI42677
aI41651
aI182194
aI42860
aI0
aI0
aI0
aI0
aI691882
aI0
aI0
aI4
aI4
aI6
aI0
aI0
aI0
aI0
aI0
aI0
aI0
aI0
aI0
aI0
aI0
aI0
aI9
aI2
aI0
aI0
aI0
aI1
aI1
aI0
aI5
aI178
aI20
aI4
aI178
aI1760
aI0
asS'8717a75bfe43f7cab935588899955d830aef5a1a.pdf'
p95
(lp96
I0
aI811
aI0
aI0
aI0
aI0
aI2
aI0
aI0
aI0
aI355
aI812
aI0
aI0
aI0
aI0
aI1
aI0
aI0
aI79
aI79
aI0
aI0
aI0
aI4
aI0
aI0
aI0
aI0
aI67
aI0
aI0
aI0
aI0
aI0
aI0
aI0
aI0
aI0
aI0
aI0
aI355
aI0
aI23
aI2
aI0
aI0
aI13308
aI0
aI0
aI0
aI0
aI0
aI31
aI8
aI356
aI0
aI1
aI0
aI356
aI1
aI14604
aI0
aI1
aI0
aI0
aI0
aI0
aI0
aI5
aI0
aI0
aI0
aI2
aI811
aI150
aI0
aI150
aI0
aI79
aI0
aI0
aI0
aI5102456
aI1
aI0
aI1
aI0
aI0
aI0
aI0
aI0
aI0
aI0
aI0
aI0
aI0
aI0
aI827
aI5118806
aI0
aI0
aI0
aI0
aI5
aI227981
aI232217
aI227981
aI227981
aI227981
aI227981
aI227410
aI227410
aI227012
aI227012
aI0
aI0
aI0
aI0
aI0
aI0
aI0
aI1
aI0
aI0
aI0
aI0
aI0
aI0
aI3
aI0
aI2
aI16230
aI0
asS'51f24ba97b52b01654700eed4db1a0dd938eec66.PDF'
p97
(lp98
I0
aI66
aI0
aI155
aI0
aI0
aI2
aI0
aI0
aI0
aI9
aI0
aI0
aI0
aI0
aI1
aI2
aI0
aI0
aI6503
aI0
aI0
aI0
aI3
aI0
aI0
aI1
aI48
aI0
aI0
aI0
aI0
aI0
aI0
aI0
aI0
aI0
aI0
aI154
aI0
aI57
aI0
aI0
aI2
aI16
aI0
aI1114
aI0
aI0
aI0
aI0
aI0
aI0
aI0
aI0
aI57
aI0
aI1
aI0
aI9
aI1
aI1260
aI0
aI1
aI0
aI0
aI0
aI0
aI12
aI0
aI0
aI0
aI2
aI66
aI8018
aI61
aI62
aI0
aI65802
aI64117
aI0
aI219
aI0
aI611844
aI1
aI0
aI1
aI60310
aI59808
aI61307
aI60396
aI62294
aI61646
aI63628
aI62580
aI0
aI0
aI0
aI775
aI613356
aI0
aI0
aI0
aI0
aI5
aI8183
aI8187
aI8162
aI8178
aI8159
aI8162
aI8018
aI8150
aI1152
aI1153
aI0
aI0
aI0
aI0
aI0
aI0
aI0
aI1
aI0
aI0
aI0
aI1
aI0
aI0
aI3
aI48
aI0
aI1331
aI0
asS'0fbfcca398bb5cf3bd254aa6b2795f89e3d25327.pdf'
p99
(lp100
I0
aI0
aI0
aI1
aI0
aI0
aI2
aI0
aI0
aI0
aI0
aI1
aI0
aI0
aI0
aI0
aI7
aI0
aI0
aI1795
aI0
aI0
aI0
aI0
aI0
aI3
aI37
aI0
aI0
aI0
aI0
aI0
aI0
aI0
aI0
aI0
aI0
aI0
aI0
aI37
aI0
aI23
aI2
aI0
aI0
aI0
aI0
aI0
aI0
aI0
aI46
aI46
aI3
aI0
aI37
aI0
aI1
aI0
aI0
aI1
aI3
aI0
aI0
aI1
aI0
aI2807
aI0
aI0
aI0
aI0
aI0
aI0
aI2
aI0
aI0
aI3310
aI12848
aI0
aI513095
aI230857
aI0
aI2892
aI2
aI801768
aI1
aI0
aI1
aI185397
aI184460
aI194104
aI191432
aI201765
aI195087
aI227646
aI203833
aI0
aI0
aI0
aI0
aI801951
aI0
aI0
aI0
aI6
aI6
aI0
aI0
aI0
aI0
aI0
aI0
aI0
aI0
aI0
aI0
aI0
aI0
aI0
aI0
aI0
aI0
aI8
aI1
aI0
aI0
aI0
aI1
aI0
aI1
aI5
aI37
aI4
aI9
aI0
asS'3add6e5e31d6a5cf73a0576eadeb8ee8440a4dc1.pdf'
p101
(lp102
I738
aI0
aI0
aI0
aI0
aI0
aI2
aI0
aI0
aI0
aI0
aI0
aI0
aI0
aI0
aI0
aI0
aI0
aI614
aI0
aI0
aI0
aI1
aI0
aI0
aI11017
aI0
aI0
aI0
aI0
aI0
aI275
aI0
aI0
aI0
aI0
aI0
aI0
aI0
aI0
aI0
aI0
aI0
aI0
aI275
aI0
aI7
aI0
aI1
aI0
aI39
aI0
aI0
aI0
aI0
aI0
aI0
aI0
aI7
aI7
aI1
aI0
aI0
aI275
aI0
aI1
aI0
aI0
aI1
aI14027
aI0
aI0
aI0
aI0
aI0
aI0
aI0
aI23
aI0
aI0
aI0
aI1
aI738
aI187
aI187
aI0
aI2839637
aI0
aI0
aI0
aI0
aI0
aI0
aI7403960
aI1
aI1
aI171335
aI170555
aI206598
aI171830
aI215198
aI215197
aI225374
aI225373
aI0
aI946660
aI0
aI734
aI0
aI7418883
aI0
aI0
aI0
aI0
aI0
aI0
aI0
aI5
aI0
aI0
aI0
aI0
aI0
aI0
aI0
aI7
aI0
aI0
aI0
aI3
aI275
aI4
aI14770
aI0
asS'3383eb7bb38c742f89077e75e0ed34d6ac5e3dff.pdf'
p103
(lp104
I430
aI0
aI10
aI0
aI0
aI0
aI2
aI0
aI0
aI0
aI0
aI0
aI0
aI0
aI0
aI0
aI0
aI0
aI2
aI0
aI0
aI0
aI1
aI0
aI0
aI36535
aI0
aI0
aI0
aI0
aI0
aI263
aI0
aI0
aI0
aI0
aI0
aI0
aI0
aI0
aI0
aI0
aI0
aI0
aI263
aI0
aI0
aI0
aI1
aI0
aI0
aI0
aI0
aI0
aI0
aI0
aI0
aI0
aI0
aI16
aI4
aI0
aI0
aI263
aI0
aI1
aI0
aI0
aI1
aI7745
aI0
aI0
aI0
aI0
aI0
aI0
aI0
aI30
aI0
aI0
aI0
aI1
aI430
aI174
aI175
aI0
aI1661213
aI0
aI0
aI0
aI0
aI0
aI0
aI3078413
aI1
aI1
aI569300
aI407084
aI647260
aI633547
aI882537
aI737743
aI1092984
aI888241
aI0
aI1111082
aI0
aI429
aI0
aI3087172
aI0
aI0
aI0
aI0
aI0
aI0
aI0
aI5
aI0
aI0
aI0
aI0
aI16
aI0
aI0
aI0
aI0
aI0
aI0
aI4
aI263
aI3
aI8610
aI0
asS'9bdfb28805dba58fc86e3cad3f29eba17f95a8e1.pdf'
p105
(lp106
I0
aI276
aI0
aI277
aI0
aI0
aI2
aI0
aI0
aI0
aI66
aI277
aI0
aI0
aI0
aI0
aI1
aI0
aI0
aI300
aI78
aI0
aI0
aI0
aI10
aI0
aI0
aI2
aI1
aI13
aI0
aI0
aI0
aI0
aI0
aI0
aI0
aI0
aI0
aI0
aI0
aI67
aI1
aI23
aI2
aI0
aI0
aI6632
aI0
aI258
aI0
aI0
aI56
aI21
aI2
aI68
aI0
aI1
aI0
aI67
aI1
aI0
aI0
aI1
aI0
aI0
aI0
aI0
aI0
aI17
aI0
aI0
aI0
aI2
aI276
aI56
aI0
aI56
aI0
aI522
aI78
aI0
aI0
aI0
aI1
aI0
aI1
aI0
aI0
aI0
aI0
aI0
aI0
aI0
aI0
aI0
aI0
aI0
aI332
aI1049756
aI0
aI0
aI0
aI0
aI0
aI283295
aI285113
aI273625
aI279661
aI228857
aI262567
aI64000
aI163143
aI53000
aI62513
aI0
aI0
aI0
aI0
aI0
aI0
aI12
aI1
aI0
aI9
aI0
aI522
aI0
aI1
aI5
aI1
aI4
aI0
aI0
asS'1bfb6b4d0ae43ed040c39db0a5e4052d18fa61cb.pdf'
p107
(lp108
I0
aI242
aI0
aI243
aI0
aI0
aI2
aI0
aI0
aI0
aI160
aI243
aI0
aI0
aI0
aI0
aI1
aI0
aI0
aI212
aI79
aI0
aI0
aI0
aI11
aI0
aI0
aI2
aI1
aI70
aI0
aI0
aI0
aI0
aI0
aI0
aI0
aI0
aI0
aI0
aI0
aI161
aI1
aI23
aI2
aI0
aI0
aI37486
aI0
aI50
aI0
aI0
aI58
aI34
aI2
aI166
aI0
aI1
aI0
aI165
aI1
aI0
aI0
aI1
aI0
aI0
aI0
aI0
aI0
aI20
aI0
aI0
aI0
aI2
aI242
aI79
aI0
aI36
aI0
aI346
aI79
aI0
aI0
aI0
aI1
aI0
aI1
aI0
aI0
aI0
aI0
aI0
aI0
aI0
aI0
aI0
aI0
aI0
aI263
aI1886750
aI0
aI0
aI0
aI0
aI0
aI1688890
aI2653785
aI708097
aI1484394
aI452231
aI601838
aI358136
aI367403
aI175014
aI209151
aI0
aI0
aI0
aI0
aI0
aI0
aI3
aI1
aI0
aI7
aI0
aI346
aI0
aI1
aI5
aI1
aI4
aI0
aI0
asS'ded96504035659297ff9c9a03b9a6948f94275e4.pdf'
p109
(lp110
I0
aI252
aI0
aI253
aI0
aI0
aI2
aI0
aI0
aI0
aI88
aI253
aI0
aI0
aI0
aI2
aI1
aI0
aI0
aI370
aI75
aI0
aI0
aI0
aI17
aI1
aI0
aI2
aI1
aI5
aI0
aI0
aI0
aI0
aI0
aI0
aI0
aI0
aI0
aI0
aI0
aI89
aI1
aI17
aI2
aI0
aI0
aI2143
aI0
aI143
aI0
aI0
aI28
aI22
aI2
aI208
aI0
aI1
aI0
aI207
aI1
aI0
aI0
aI1
aI0
aI0
aI0
aI0
aI0
aI4
aI0
aI0
aI0
aI2
aI252
aI246
aI0
aI246
aI0
aI665
aI75
aI0
aI0
aI0
aI1
aI0
aI1
aI0
aI0
aI0
aI0
aI0
aI0
aI0
aI0
aI0
aI1
aI0
aI358
aI438176
aI0
aI0
aI0
aI0
aI0
aI78010
aI95243
aI71647
aI77821
aI61953
aI70916
aI35383
aI52780
aI9884
aI17537
aI0
aI0
aI0
aI0
aI0
aI0
aI0
aI1
aI0
aI8
aI0
aI665
aI0
aI1
aI6
aI1
aI3
aI0
aI0
asS'2f40b3a1d233343610c6f3e699c01448927daaa4.pdf'
p111
(lp112
I0
aI0
aI0
aI1
aI0
aI0
aI2
aI0
aI0
aI0
aI0
aI1
aI0
aI0
aI0
aI0
aI7
aI0
aI0
aI1514
aI0
aI0
aI0
aI0
aI0
aI9
aI49
aI0
aI0
aI0
aI0
aI0
aI0
aI0
aI0
aI0
aI0
aI0
aI0
aI49
aI0
aI16
aI2
aI2
aI0
aI0
aI0
aI0
aI0
aI0
aI56
aI56
aI9
aI0
aI49
aI0
aI1
aI0
aI0
aI1
aI3
aI0
aI0
aI1
aI0
aI805
aI0
aI0
aI0
aI0
aI0
aI0
aI2
aI0
aI0
aI170
aI170
aI0
aI565399
aI144437
aI0
aI941
aI2
aI361097
aI1
aI0
aI1
aI13231
aI13041
aI16039
aI14710
aI29748
aI28780
aI97312
aI46485
aI0
aI0
aI0
aI0
aI361281
aI0
aI0
aI0
aI2
aI6
aI0
aI0
aI0
aI0
aI0
aI0
aI0
aI0
aI0
aI0
aI0
aI0
aI0
aI0
aI0
aI0
aI0
aI1
aI0
aI0
aI0
aI1
aI0
aI1
aI5
aI49
aI3
aI9
aI0
asS'805d748df87bd4325bee38925f6e6638fa357ae8.pdf'
p113
(lp114
I0
aI0
aI0
aI1
aI0
aI0
aI2
aI0
aI0
aI0
aI0
aI1
aI0
aI0
aI0
aI0
aI7
aI0
aI0
aI57262
aI0
aI0
aI0
aI0
aI0
aI3
aI17
aI0
aI0
aI0
aI0
aI0
aI0
aI0
aI0
aI0
aI0
aI0
aI0
aI17
aI0
aI16
aI2
aI2
aI0
aI0
aI0
aI0
aI0
aI0
aI56
aI56
aI3
aI0
aI17
aI0
aI1
aI0
aI0
aI1
aI3
aI0
aI0
aI1
aI0
aI69
aI0
aI0
aI0
aI0
aI0
aI0
aI2
aI0
aI0
aI171
aI171
aI0
aI2272712
aI1580159
aI0
aI112
aI2
aI670443
aI1
aI0
aI1
aI11048
aI5215
aI135901
aI82217
aI302002
aI136626
aI1502751
aI362970
aI0
aI0
aI0
aI0
aI670626
aI0
aI0
aI0
aI1
aI6
aI0
aI0
aI0
aI0
aI0
aI0
aI0
aI0
aI0
aI0
aI0
aI0
aI0
aI0
aI0
aI0
aI6
aI1
aI0
aI0
aI0
aI1
aI0
aI1
aI5
aI17
aI4
aI9
aI0
asS'da1bde4fa3d50a5c560cbb8ebd785d9a64b5c36c.pdf'
p115
(lp116
I222
aI0
aI7
aI0
aI0
aI0
aI2
aI0
aI0
aI0
aI0
aI0
aI0
aI0
aI0
aI0
aI0
aI0
aI220
aI0
aI0
aI0
aI1
aI0
aI0
aI7977
aI0
aI0
aI0
aI0
aI0
aI27
aI0
aI0
aI0
aI0
aI0
aI0
aI0
aI0
aI0
aI0
aI0
aI0
aI27
aI0
aI16
aI0
aI1
aI0
aI0
aI0
aI0
aI0
aI0
aI0
aI0
aI0
aI3
aI10
aI2
aI0
aI0
aI27
aI0
aI1
aI0
aI0
aI1
aI4223
aI0
aI0
aI1
aI0
aI0
aI0
aI0
aI18
aI0
aI2
aI0
aI1
aI222
aI1368
aI1667
aI0
aI725495
aI0
aI0
aI0
aI0
aI0
aI0
aI806469
aI1
aI1
aI14378
aI13752
aI17491
aI15350
aI18420
aI18221
aI31624
aI29605
aI0
aI725495
aI0
aI217
aI0
aI810995
aI0
aI0
aI0
aI0
aI0
aI0
aI0
aI5
aI0
aI0
aI0
aI0
aI3
aI0
aI0
aI0
aI0
aI0
aI0
aI3
aI27
aI4
aI4450
aI0
asS'cae96c8a04e34598f7666d3b004b44f4f0618bfe.pdf'
p117
(lp118
I0
aI1249
aI0
aI0
aI0
aI0
aI2
aI0
aI0
aI0
aI58
aI1250
aI0
aI0
aI0
aI0
aI1
aI0
aI0
aI79
aI79
aI0
aI0
aI0
aI11
aI0
aI0
aI0
aI0
aI0
aI0
aI0
aI0
aI0
aI0
aI0
aI0
aI0
aI0
aI0
aI0
aI58
aI1
aI23
aI2
aI0
aI0
aI1155
aI0
aI1100
aI0
aI0
aI29
aI31
aI1
aI59
aI0
aI1
aI0
aI59
aI1
aI22488
aI0
aI1
aI0
aI0
aI0
aI0
aI0
aI13
aI0
aI0
aI0
aI2
aI1249
aI399
aI0
aI383
aI0
aI79
aI0
aI0
aI0
aI301987
aI1
aI0
aI1
aI0
aI0
aI0
aI0
aI0
aI0
aI0
aI0
aI0
aI0
aI0
aI1285
aI327029
aI0
aI0
aI0
aI0
aI6
aI275482
aI426118
aI149054
aI238246
aI10788
aI51120
aI10637
aI10771
aI9354
aI9636
aI0
aI0
aI0
aI0
aI0
aI0
aI74
aI1
aI0
aI11
aI0
aI0
aI0
aI0
aI4
aI0
aI4
aI24992
aI0
asS'ea9fb6ceb4520538a707921e019e18c670044d45.pdf'
p119
(lp120
I0
aI0
aI0
aI1
aI0
aI0
aI2
aI0
aI0
aI0
aI0
aI1
aI0
aI0
aI0
aI0
aI7
aI0
aI0
aI8704
aI0
aI0
aI0
aI0
aI0
aI1
aI54
aI0
aI0
aI0
aI0
aI0
aI0
aI0
aI0
aI0
aI0
aI0
aI0
aI54
aI0
aI23
aI2
aI3
aI0
aI0
aI0
aI0
aI0
aI0
aI42
aI42
aI1
aI0
aI54
aI0
aI1
aI0
aI0
aI1
aI3
aI0
aI0
aI1
aI0
aI1291
aI0
aI0
aI0
aI0
aI0
aI0
aI2
aI0
aI0
aI171
aI171
aI0
aI1216686
aI1209639
aI0
aI1426
aI2
aI840459
aI1
aI0
aI1
aI425951
aI418350
aI1180239
aI1180239
aI1198038
aI1181802
aI1204188
aI1198749
aI0
aI0
aI0
aI0
aI840644
aI0
aI0
aI0
aI3
aI6
aI0
aI0
aI0
aI0
aI0
aI0
aI0
aI0
aI0
aI0
aI0
aI0
aI0
aI0
aI0
aI0
aI17
aI1
aI0
aI0
aI0
aI1
aI0
aI1
aI5
aI54
aI4
aI9
aI0
asS'cbe1fa645f56da01ea4efc2b6049a14ecb691909.pdf'
p121
(lp122
I54
aI0
aI57
aI0
aI0
aI0
aI2
aI0
aI0
aI0
aI0
aI0
aI0
aI0
aI0
aI0
aI0
aI0
aI50
aI0
aI0
aI0
aI1
aI0
aI0
aI80489
aI0
aI0
aI0
aI0
aI0
aI15
aI0
aI0
aI0
aI0
aI0
aI0
aI0
aI0
aI0
aI0
aI0
aI0
aI15
aI0
aI23
aI0
aI1
aI0
aI0
aI0
aI0
aI0
aI0
aI0
aI0
aI0
aI0
aI16
aI5
aI0
aI0
aI16
aI0
aI1
aI0
aI0
aI1
aI976
aI0
aI0
aI0
aI0
aI0
aI0
aI0
aI8
aI0
aI1
aI0
aI1
aI54
aI389
aI563
aI0
aI3882157
aI0
aI0
aI0
aI0
aI0
aI0
aI107944
aI1
aI1
aI5171
aI4235
aI9629
aI5619
aI18537
aI14366
aI50685
aI42802
aI0
aI60385
aI0
aI51
aI0
aI109192
aI0
aI0
aI0
aI0
aI0
aI0
aI0
aI6
aI0
aI0
aI0
aI0
aI0
aI0
aI0
aI19
aI0
aI0
aI0
aI4
aI16
aI4
aI1090
aI0
asS'80b67fc5b211345e498c5a6c1df5d2108f9e70b4.pdf'
p123
(lp124
I0
aI1
aI0
aI0
aI0
aI2
aI0
aI0
aI0
aI42
aI73
aI0
aI0
aI2
aI0
aI0
aI0
aI0
aI1
aI0
aI21
aI0
aI76
aI76
aI0
aI11580
aI11580
aI15455
aI14296
aI13624
aI12512
aI203335
aI203335
aI11
aI36599
aI0
aI0
aI0
aI0
aI3
aI6752
aI1
aI0
aI73
aI0
aI73
aI23
aI0
aI3
aI0
aI15574
aI0
aI13
aI36
aI33
aI7
aI85
aI0
aI1
aI0
aI0
aI76353
aI49
aI1
aI21
aI0
aI2
aI0
aI0
aI0
aI11
aI0
aI0
aI3
aI31
aI1
aI50
aI0
aI50
aI76
aI0
aI0
aI0
aI0
aI270106
aI1
aI0
aI1
aI0
aI0
aI0
aI0
aI0
aI0
aI0
aI0
aI0
aI0
aI0
aI206
aI0
aI273340
aI0
aI0
aI7
aI0
aI6
aI203334
aI219302
aI203334
aI203334
aI203334
aI203334
aI41787
aI203334
aI26413
aI31355
aI0
aI0
aI11
aI2
aI0
aI0
aI0
aI0
aI0
aI0
aI4
aI50
aI0
aI4
aI50
aI1994
aI0
asS'ff275b4b089f3de281d1c88f09a98e40ac292ba5.pdf'
p125
(lp126
I0
aI1
aI0
aI0
aI0
aI2
aI0
aI0
aI0
aI11
aI17
aI0
aI0
aI0
aI0
aI0
aI0
aI0
aI1
aI0
aI10
aI0
aI74
aI74
aI0
aI276522
aI276021
aI279281
aI279122
aI278737
aI276746
aI321811
aI321811
aI11
aI318887
aI0
aI0
aI0
aI0
aI0
aI34156
aI1
aI0
aI95
aI0
aI17
aI23
aI0
aI3
aI0
aI19437
aI0
aI26
aI289
aI33
aI1
aI301
aI0
aI1
aI0
aI0
aI321811
aI12
aI1
aI21
aI0
aI2
aI0
aI0
aI0
aI39
aI0
aI0
aI3
aI84
aI1
aI383
aI0
aI247
aI74
aI0
aI0
aI0
aI0
aI2216218
aI1
aI0
aI1
aI0
aI0
aI0
aI0
aI0
aI0
aI0
aI0
aI0
aI0
aI0
aI502
aI0
aI2226451
aI0
aI0
aI1
aI0
aI6
aI224142
aI285050
aI30865
aI179930
aI3707
aI3834
aI988
aI3592
aI500
aI776
aI0
aI0
aI19
aI2
aI0
aI0
aI0
aI0
aI0
aI0
aI4
aI125
aI0
aI4
aI125
aI9313
aI0
asS'da243f0c98d24e37bf9e35b49f0228af8add799c.pdf'
p127
(lp128
I0
aI0
aI0
aI1
aI0
aI0
aI2
aI0
aI0
aI0
aI0
aI1
aI0
aI0
aI0
aI0
aI7
aI0
aI0
aI36155
aI0
aI0
aI0
aI0
aI0
aI9
aI646
aI0
aI0
aI0
aI0
aI0
aI0
aI0
aI0
aI0
aI0
aI0
aI0
aI646
aI0
aI23
aI2
aI89
aI0
aI0
aI0
aI0
aI0
aI0
aI42
aI42
aI9
aI0
aI646
aI0
aI1
aI0
aI0
aI1
aI3
aI0
aI0
aI1
aI0
aI1474
aI0
aI0
aI0
aI0
aI0
aI0
aI2
aI0
aI0
aI169
aI170
aI0
aI2845099
aI2703967
aI0
aI2532
aI2
aI3708213
aI1
aI0
aI1
aI1782844
aI1764967
aI1911175
aI1820119
aI2241562
aI2054017
aI2663455
aI2421232
aI0
aI0
aI0
aI0
aI3708401
aI0
aI0
aI0
aI3
aI6
aI0
aI0
aI0
aI0
aI0
aI0
aI0
aI0
aI0
aI0
aI0
aI0
aI0
aI0
aI0
aI0
aI7
aI1
aI0
aI0
aI0
aI1
aI0
aI1
aI5
aI646
aI4
aI9
aI0
asS'dbb7c456faa2d5ec482269cbc7d79196995daa54.pdf'
p129
(lp130
I0
aI283
aI0
aI0
aI0
aI0
aI2
aI0
aI0
aI0
aI121
aI284
aI0
aI0
aI0
aI0
aI1
aI0
aI0
aI79
aI79
aI0
aI0
aI0
aI4
aI0
aI0
aI0
aI0
aI25
aI0
aI0
aI0
aI0
aI0
aI0
aI0
aI0
aI0
aI0
aI0
aI121
aI0
aI23
aI2
aI0
aI0
aI13533
aI0
aI0
aI0
aI0
aI24
aI31
aI2
aI125
aI0
aI1
aI0
aI125
aI1
aI5100
aI0
aI1
aI0
aI0
aI0
aI0
aI0
aI47
aI0
aI0
aI0
aI2
aI283
aI94
aI0
aI54
aI0
aI79
aI0
aI0
aI0
aI1068132
aI1
aI0
aI1
aI0
aI0
aI0
aI0
aI0
aI0
aI0
aI0
aI0
aI0
aI0
aI309
aI1073922
aI0
aI0
aI0
aI0
aI5
aI350878
aI505090
aI326819
aI337510
aI176178
aI320950
aI170629
aI171106
aI141502
aI148198
aI0
aI0
aI0
aI0
aI0
aI0
aI4
aI1
aI0
aI0
aI0
aI0
aI0
aI0
aI4
aI0
aI4
aI5670
aI0
asS'aa0427eeb0251f527359472c02589a56e5bb93a2.pdf'
p131
(lp132
I0
aI1508
aI0
aI0
aI0
aI0
aI2
aI0
aI0
aI0
aI71
aI1509
aI0
aI3
aI0
aI0
aI1
aI0
aI0
aI77
aI77
aI0
aI0
aI0
aI11
aI0
aI0
aI0
aI0
aI5
aI0
aI0
aI0
aI0
aI0
aI0
aI0
aI0
aI0
aI0
aI0
aI71
aI1
aI23
aI2
aI0
aI0
aI593
aI0
aI1324
aI0
aI0
aI35
aI33
aI1
aI72
aI0
aI1
aI0
aI72
aI1
aI27150
aI0
aI1
aI0
aI0
aI0
aI0
aI0
aI9
aI0
aI0
aI0
aI2
aI1508
aI151
aI0
aI151
aI0
aI77
aI0
aI0
aI0
aI326925
aI1
aI0
aI1
aI0
aI0
aI0
aI0
aI0
aI0
aI0
aI0
aI0
aI0
aI0
aI1532
aI357147
aI0
aI0
aI0
aI0
aI6
aI127918
aI173026
aI53097
aI62862
aI49160
aI49462
aI8671
aI42490
aI8154
aI8469
aI0
aI0
aI0
aI0
aI0
aI0
aI6
aI1
aI0
aI14
aI0
aI0
aI0
aI0
aI4
aI0
aI4
aI30172
aI0
asS'94a5dc1f3af1d1b601d04f3b5106a0614964d465.pdf'
p133
(lp134
I47
aI0
aI2
aI0
aI0
aI0
aI2
aI0
aI0
aI0
aI0
aI0
aI0
aI0
aI0
aI0
aI0
aI0
aI27
aI0
aI0
aI0
aI1
aI0
aI0
aI79206
aI0
aI0
aI0
aI0
aI0
aI12
aI0
aI0
aI0
aI0
aI0
aI0
aI0
aI0
aI0
aI0
aI0
aI0
aI12
aI0
aI23
aI0
aI1
aI0
aI0
aI0
aI0
aI0
aI0
aI0
aI0
aI0
aI38
aI18
aI1
aI0
aI0
aI15
aI0
aI1
aI0
aI0
aI1
aI897
aI0
aI0
aI0
aI0
aI0
aI0
aI0
aI6
aI0
aI0
aI0
aI1
aI47
aI455
aI532
aI0
aI969471
aI0
aI0
aI0
aI0
aI0
aI0
aI46291
aI1
aI1
aI17066
aI12562
aI40646
aI17982
aI276385
aI40646
aI969470
aI323258
aI0
aI969470
aI0
aI46
aI0
aI47311
aI0
aI0
aI0
aI0
aI0
aI0
aI0
aI5
aI0
aI0
aI0
aI0
aI0
aI0
aI0
aI0
aI0
aI0
aI0
aI4
aI15
aI3
aI949
aI0
asS'5b4ede35f4bece4a280b86c70a7f551360b596cf.pdf'
p135
(lp136
I277
aI0
aI10
aI0
aI0
aI0
aI2
aI0
aI0
aI0
aI0
aI0
aI0
aI0
aI0
aI0
aI0
aI0
aI7
aI0
aI0
aI0
aI1
aI0
aI0
aI2014
aI0
aI0
aI0
aI0
aI0
aI127
aI0
aI0
aI0
aI0
aI0
aI0
aI0
aI0
aI0
aI0
aI0
aI0
aI127
aI0
aI23
aI0
aI1
aI0
aI2
aI0
aI0
aI0
aI0
aI0
aI0
aI0
aI28
aI24
aI5
aI0
aI0
aI132
aI0
aI1
aI0
aI0
aI1
aI4991
aI0
aI0
aI0
aI0
aI0
aI0
aI0
aI55
aI0
aI0
aI0
aI1
aI277
aI218
aI218
aI0
aI55428
aI0
aI0
aI0
aI0
aI0
aI0
aI308418
aI1
aI1
aI9485
aI9254
aI10335
aI10155
aI10702
aI10468
aI12986
aI12326
aI0
aI41813
aI0
aI274
aI0
aI314116
aI0
aI0
aI0
aI0
aI0
aI0
aI0
aI6
aI0
aI0
aI0
aI0
aI6
aI0
aI0
aI0
aI0
aI0
aI0
aI6
aI132
aI4
aI5551
aI0
asS'b40e0264e2251cd08505e0b428056a85cd460fdd.pdf'
p137
(lp138
I0
aI690
aI0
aI0
aI0
aI0
aI2
aI0
aI0
aI0
aI275
aI691
aI0
aI0
aI0
aI0
aI1
aI0
aI0
aI81
aI81
aI0
aI0
aI0
aI11
aI0
aI0
aI0
aI0
aI10
aI0
aI0
aI0
aI0
aI0
aI0
aI0
aI0
aI0
aI0
aI0
aI275
aI0
aI23
aI2
aI0
aI0
aI32502
aI0
aI0
aI0
aI0
aI26
aI33
aI6
aI280
aI0
aI1
aI0
aI280
aI1
aI12425
aI0
aI1
aI0
aI0
aI0
aI0
aI0
aI24
aI0
aI0
aI0
aI2
aI690
aI82
aI0
aI79
aI0
aI81
aI0
aI0
aI0
aI2490857
aI1
aI0
aI1
aI0
aI0
aI0
aI0
aI0
aI0
aI0
aI0
aI0
aI0
aI0
aI724
aI2504790
aI0
aI0
aI0
aI0
aI6
aI1804475
aI1900416
aI1795085
aI1795085
aI1335336
aI1461683
aI1265244
aI1324956
aI996773
aI1064129
aI0
aI0
aI0
aI0
aI0
aI0
aI0
aI1
aI0
aI0
aI0
aI0
aI0
aI0
aI7
aI0
aI4
aI13811
aI0
asS'2bb98025c0b5bc6adf8428175ab2fb4bb09b8764.pdf'
p139
(lp140
I36
aI0
aI51
aI0
aI0
aI0
aI2
aI0
aI0
aI0
aI0
aI0
aI0
aI0
aI0
aI0
aI0
aI0
aI35
aI0
aI0
aI0
aI1
aI0
aI0
aI1355
aI0
aI0
aI0
aI0
aI0
aI3
aI0
aI0
aI0
aI0
aI0
aI0
aI0
aI0
aI0
aI0
aI0
aI0
aI3
aI0
aI23
aI0
aI1
aI0
aI1
aI0
aI0
aI0
aI0
aI0
aI0
aI0
aI0
aI74
aI3
aI0
aI0
aI4
aI0
aI1
aI0
aI0
aI1
aI688
aI0
aI0
aI1
aI0
aI0
aI0
aI0
aI2
aI0
aI2
aI0
aI1
aI36
aI152
aI4369
aI0
aI21568
aI0
aI0
aI0
aI0
aI0
aI0
aI41892
aI1
aI1
aI443
aI439
aI455
aI449
aI482
aI462
aI4369
aI604
aI0
aI10119
aI0
aI35
aI0
aI42771
aI0
aI0
aI0
aI0
aI0
aI0
aI0
aI5
aI0
aI0
aI0
aI0
aI1
aI0
aI0
aI0
aI0
aI0
aI0
aI7
aI4
aI4
aI729
aI0
asS'4bf4facc59353f098a891548c3d26b98760e810d.pdf'
p141
(lp142
I0
aI0
aI0
aI1
aI0
aI0
aI2
aI0
aI0
aI0
aI0
aI1
aI0
aI0
aI0
aI0
aI7
aI0
aI0
aI430
aI0
aI0
aI0
aI0
aI0
aI3
aI255
aI0
aI0
aI0
aI0
aI0
aI0
aI0
aI0
aI0
aI0
aI0
aI0
aI255
aI0
aI16
aI2
aI1
aI0
aI0
aI0
aI0
aI0
aI0
aI56
aI56
aI3
aI0
aI255
aI0
aI1
aI0
aI0
aI1
aI3
aI0
aI0
aI1
aI0
aI37158
aI0
aI0
aI0
aI0
aI0
aI0
aI2
aI0
aI0
aI171
aI393
aI0
aI739335
aI400934
aI0
aI37682
aI2
aI3072856
aI1
aI0
aI1
aI160693
aI154898
aI203862
aI164926
aI263937
aI222102
aI374573
aI374573
aI0
aI0
aI0
aI0
aI3073045
aI0
aI0
aI0
aI75
aI6
aI0
aI0
aI0
aI0
aI0
aI0
aI0
aI0
aI0
aI0
aI0
aI0
aI0
aI0
aI0
aI0
aI13
aI1
aI0
aI0
aI0
aI1
aI0
aI1
aI5
aI255
aI4
aI9
aI0
as.